   1               		.file	"main.cpp"
   2               		.arch atmega16
   3               	__SREG__ = 0x3f
   4               	__SP_H__ = 0x3e
   5               	__SP_L__ = 0x3d
   6               	__tmp_reg__ = 0
   7               	__zero_reg__ = 1
   8               		.global __do_copy_data
   9               		.global __do_clear_bss
  17               	.Ltext0:
  18               	.global	rollade
  19               	.global	rollade
  20               		.section .bss
  23               	rollade:
  24 0000 0000 0000 		.skip 48,0
  24      0000 0000 
  24      0000 0000 
  24      0000 0000 
  24      0000 0000 
  25               	.global	dOutput
  26               	.global	dOutput
  29               	dOutput:
  30 0030 0000 0000 		.skip 10,0
  30      0000 0000 
  30      0000 
  31               	.global	aInput
  32               	.global	aInput
  35               	aInput:
  36 003a 0000 0000 		.skip 115,0
  36      0000 0000 
  36      0000 0000 
  36      0000 0000 
  36      0000 0000 
  37               	.global	analog_factor
  38               		.data
  41               	analog_factor:
  42 0000 01        		.byte	1
  43               	.global	i2c_counter
  44               	.global	i2c_counter
  45               		.section .bss
  48               	i2c_counter:
  49 00ad 00        		.skip 1,0
  50               	.global	cnt
  51               	.global	cnt
  54               	cnt:
  55 00ae 00        		.skip 1,0
  56               	.global	BeweassernZeit
  57               	.global	BeweassernZeit
  60               	BeweassernZeit:
  61 00af 0000 0000 		.skip 4,0
  62               	.global	WindowUpTime
  63               	.global	WindowUpTime
  66               	WindowUpTime:
  67 00b3 0000 0000 		.skip 4,0
  68               	.global	SensorCheckEnd
  69               	.global	SensorCheckEnd
  72               	SensorCheckEnd:
  73 00b7 0000 0000 		.skip 4,0
  74               	.global	SensorCheckStart
  75               	.global	SensorCheckStart
  78               	SensorCheckStart:
  79 00bb 0000 0000 		.skip 4,0
  80               	.global	first_time
  81               	.global	first_time
  84               	first_time:
  85 00bf 00        		.skip 1,0
  86               	.global	current_day
  87               	.global	current_day
  90               	current_day:
  91 00c0 00        		.skip 1,0
  92               	.global	bewaessern_count
  93               	.global	bewaessern_count
  96               	bewaessern_count:
  97 00c1 0000      		.skip 2,0
  98               	.global	power_on_led
  99               	.global	power_on_led
 102               	power_on_led:
 103 00c3 0000      		.skip 2,0
 104               	.global	roller_shutters_delay
 105               	.global	roller_shutters_delay
 108               	roller_shutters_delay:
 109 00c5 0000 0000 		.skip 4,0
 110               	.global	window_time
 111               	.global	window_time
 114               	window_time:
 115 00c9 0000 0000 		.skip 4,0
 116               	.global	sunset_time
 117               	.global	sunset_time
 120               	sunset_time:
 121 00cd 0000 0000 		.skip 4,0
 122               		.lcomm last_sonne_weg,1
 123               		.lcomm last_sonne_da,1
 124               		.lcomm roladen_demaerung,1
 125               		.lcomm status,1
 126               		.lcomm watering_status,1
 127               		.lcomm pwo_status,1
 128               		.lcomm sonnen_automatik,1
 129               		.text
 130               	.global	_Z7LichtAnv
 132               	_Z7LichtAnv:
 133               	.LFB15:
 134               	.LM1:
 135               	/* prologue: frame size=0 */
 136               	/* prologue end (size=0) */
 137               	.LBB2:
 138               	.LM2:
 139 0000 959A      		sbi 50-0x20,5
 140               	.LBE2:
 141               	/* epilogue: frame size=0 */
 142 0002 0895      		ret
 143               	/* epilogue end (size=1) */
 144               	/* function void LichtAn() size 2 (1) */
 145               	.LFE15:
 147               	.global	_Z8LichtAusv
 149               	_Z8LichtAusv:
 150               	.LFB16:
 151               	.LM3:
 152               	/* prologue: frame size=0 */
 153               	/* prologue end (size=0) */
 154               	.LBB3:
 155               	.LM4:
 156 0004 9598      		cbi 50-0x20,5
 157               	.LBE3:
 158               	/* epilogue: frame size=0 */
 159 0006 0895      		ret
 160               	/* epilogue end (size=1) */
 161               	/* function void LichtAus() size 2 (1) */
 162               	.LFE16:
 164               	.global	_Z18i2c_send_time_datav
 166               	_Z18i2c_send_time_datav:
 167               	.LFB17:
 168               	.LM5:
 169               	/* prologue: frame size=0 */
 170 0008 CF93      		push r28
 171 000a DF93      		push r29
 172               	/* prologue end (size=2) */
 173               	.LBB4:
 174               	.LBB5:
 175               	.LM6:
 176 000c C0E0      		ldi r28,lo8(0)
 177 000e D0E0      		ldi r29,hi8(0)
 178               	.LM7:
 179 0010 04C0      		rjmp .L4
 180               	.L7:
 181               	.LM8:
 182 0012 2196      		adiw r28,1
 183               	.LM9:
 184 0014 CB30      		cpi r28,11
 185 0016 D105      		cpc r29,__zero_reg__
 186 0018 B0F4      		brsh .L3
 187               	.L4:
 188               	.LM10:
 189 001a 8AE1      		ldi r24,lo8(26)
 190 001c 0E94 0000 		call _Z9i2c_starth
 191 0020 8823      		tst r24
 192 0022 B9F7      		brne .L7
 193               	.LM11:
 194 0024 84E5      		ldi r24,lo8(84)
 195 0026 0E94 0000 		call _Z9i2c_writeh
 196               	.LM12:
 197 002a 8091 0000 		lds r24,time+2
 198 002e 0E94 0000 		call _Z9i2c_writeh
 199               	.LM13:
 200 0032 8091 0000 		lds r24,time+1
 201 0036 0E94 0000 		call _Z9i2c_writeh
 202               	.LM14:
 203 003a 8091 0000 		lds r24,time
 204 003e 0E94 0000 		call _Z9i2c_writeh
 205               	.LM15:
 206 0042 0E94 0000 		call _Z8i2c_stopv
 207               	.L3:
 208               	.LBE5:
 209               	.LBE4:
 210               	/* epilogue: frame size=0 */
 211 0046 DF91      		pop r29
 212 0048 CF91      		pop r28
 213 004a 0895      		ret
 214               	/* epilogue end (size=3) */
 215               	/* function void i2c_send_time_data() size 34 (29) */
 216               	.LFE17:
 218               	.global	_Z18i2c_send_date_datav
 220               	_Z18i2c_send_date_datav:
 221               	.LFB18:
 222               	.LM16:
 223               	/* prologue: frame size=0 */
 224 004c CF93      		push r28
 225 004e DF93      		push r29
 226               	/* prologue end (size=2) */
 227               	.LBB6:
 228               	.LBB7:
 229               	.LM17:
 230 0050 C0E0      		ldi r28,lo8(0)
 231 0052 D0E0      		ldi r29,hi8(0)
 232               	.LM18:
 233 0054 04C0      		rjmp .L9
 234               	.L12:
 235               	.LM19:
 236 0056 2196      		adiw r28,1
 237               	.LM20:
 238 0058 CB30      		cpi r28,11
 239 005a D105      		cpc r29,__zero_reg__
 240 005c D0F4      		brsh .L8
 241               	.L9:
 242               	.LM21:
 243 005e 8AE1      		ldi r24,lo8(26)
 244 0060 0E94 0000 		call _Z9i2c_starth
 245 0064 8823      		tst r24
 246 0066 B9F7      		brne .L12
 247               	.LM22:
 248 0068 84E4      		ldi r24,lo8(68)
 249 006a 0E94 0000 		call _Z9i2c_writeh
 250               	.LM23:
 251 006e 8091 0000 		lds r24,dcf+17
 252 0072 0E94 0000 		call _Z9i2c_writeh
 253               	.LM24:
 254 0076 8091 0000 		lds r24,dcf+16
 255 007a 0E94 0000 		call _Z9i2c_writeh
 256               	.LM25:
 257 007e 8091 0000 		lds r24,dcf+18
 258 0082 0E94 0000 		call _Z9i2c_writeh
 259               	.LM26:
 260 0086 8091 0000 		lds r24,dcf+19
 261 008a 0E94 0000 		call _Z9i2c_writeh
 262               	.LM27:
 263 008e 0E94 0000 		call _Z8i2c_stopv
 264               	.L8:
 265               	.LBE7:
 266               	.LBE6:
 267               	/* epilogue: frame size=0 */
 268 0092 DF91      		pop r29
 269 0094 CF91      		pop r28
 270 0096 0895      		ret
 271               	/* epilogue end (size=3) */
 272               	/* function void i2c_send_date_data() size 38 (33) */
 273               	.LFE18:
 275               	.global	_Z24i2c_send_dcf_status_datav
 277               	_Z24i2c_send_dcf_status_datav:
 278               	.LFB19:
 279               	.LM28:
 280               	/* prologue: frame size=0 */
 281 0098 CF93      		push r28
 282 009a DF93      		push r29
 283               	/* prologue end (size=2) */
 284               	.LBB8:
 285               	.LBB9:
 286               	.LM29:
 287 009c C0E0      		ldi r28,lo8(0)
 288 009e D0E0      		ldi r29,hi8(0)
 289               	.LM30:
 290 00a0 04C0      		rjmp .L14
 291               	.L17:
 292               	.LM31:
 293 00a2 2196      		adiw r28,1
 294               	.LM32:
 295 00a4 CB30      		cpi r28,11
 296 00a6 D105      		cpc r29,__zero_reg__
 297 00a8 B0F4      		brsh .L13
 298               	.L14:
 299               	.LM33:
 300 00aa 8AE1      		ldi r24,lo8(26)
 301 00ac 0E94 0000 		call _Z9i2c_starth
 302 00b0 8823      		tst r24
 303 00b2 B9F7      		brne .L17
 304               	.LM34:
 305 00b4 86E4      		ldi r24,lo8(70)
 306 00b6 0E94 0000 		call _Z9i2c_writeh
 307               	.LM35:
 308 00ba 8091 0000 		lds r24,dcf+21
 309 00be 0E94 0000 		call _Z9i2c_writeh
 310               	.LM36:
 311 00c2 8091 0000 		lds r24,dcf+9
 312 00c6 0E94 0000 		call _Z9i2c_writeh
 313               	.LM37:
 314 00ca 8091 0000 		lds r24,dcf+22
 315 00ce 0E94 0000 		call _Z9i2c_writeh
 316               	.LM38:
 317 00d2 0E94 0000 		call _Z8i2c_stopv
 318               	.L13:
 319               	.LBE9:
 320               	.LBE8:
 321               	/* epilogue: frame size=0 */
 322 00d6 DF91      		pop r29
 323 00d8 CF91      		pop r28
 324 00da 0895      		ret
 325               	/* epilogue end (size=3) */
 326               	/* function void i2c_send_dcf_status_data() size 34 (29) */
 327               	.LFE19:
 329               	.global	_Z26i2c_send_abend_sunset_datav
 331               	_Z26i2c_send_abend_sunset_datav:
 332               	.LFB20:
 333               	.LM39:
 334               	/* prologue: frame size=0 */
 335 00dc 1F93      		push r17
 336 00de CF93      		push r28
 337 00e0 DF93      		push r29
 338               	/* prologue end (size=3) */
 339               	.LBB10:
 340               	.LBB11:
 341               	.LM40:
 342 00e2 C0E0      		ldi r28,lo8(0)
 343 00e4 D0E0      		ldi r29,hi8(0)
 344               	.LM41:
 345 00e6 05C0      		rjmp .L19
 346               	.L22:
 347               	.LM42:
 348 00e8 2196      		adiw r28,1
 349               	.LM43:
 350 00ea 83E0      		ldi r24,hi8(1001)
 351 00ec C93E      		cpi r28,lo8(1001)
 352 00ee D807      		cpc r29,r24
 353 00f0 10F5      		brsh .L18
 354               	.L19:
 355               	.LM44:
 356 00f2 8AE1      		ldi r24,lo8(26)
 357 00f4 0E94 0000 		call _Z9i2c_starth
 358 00f8 182F      		mov r17,r24
 359 00fa 8823      		tst r24
 360 00fc A9F7      		brne .L22
 361               	.LM45:
 362 00fe 83E5      		ldi r24,lo8(83)
 363 0100 0E94 0000 		call _Z9i2c_writeh
 364               	.LM46:
 365 0104 8091 0000 		lds r24,status
 366 0108 0E94 0000 		call _Z9i2c_writeh
 367               	.LM47:
 368 010c 812F      		mov r24,r17
 369 010e 0E94 0000 		call _Z9i2c_writeh
 370               	.LM48:
 371 0112 8091 0000 		lds r24,sunset_time+2
 372 0116 0E94 0000 		call _Z9i2c_writeh
 373               	.LM49:
 374 011a 8091 0000 		lds r24,sunset_time+1
 375 011e 0E94 0000 		call _Z9i2c_writeh
 376               	.LM50:
 377 0122 8091 0000 		lds r24,SensorCheckEnd+2
 378 0126 0E94 0000 		call _Z9i2c_writeh
 379               	.LM51:
 380 012a 8091 0000 		lds r24,SensorCheckEnd+1
 381 012e 0E94 0000 		call _Z9i2c_writeh
 382               	.LM52:
 383 0132 0E94 0000 		call _Z8i2c_stopv
 384               	.L18:
 385               	.LBE11:
 386               	.LBE10:
 387               	/* epilogue: frame size=0 */
 388 0136 DF91      		pop r29
 389 0138 CF91      		pop r28
 390 013a 1F91      		pop r17
 391 013c 0895      		ret
 392               	/* epilogue end (size=4) */
 393               	/* function void i2c_send_abend_sunset_data() size 49 (42) */
 394               	.LFE20:
 396               	.global	_Z26i2c_send_abend_window_datav
 398               	_Z26i2c_send_abend_window_datav:
 399               	.LFB21:
 400               	.LM53:
 401               	/* prologue: frame size=0 */
 402 013e CF93      		push r28
 403 0140 DF93      		push r29
 404               	/* prologue end (size=2) */
 405               	.LBB12:
 406               	.LBB13:
 407               	.LM54:
 408 0142 C0E0      		ldi r28,lo8(0)
 409 0144 D0E0      		ldi r29,hi8(0)
 410               	.LM55:
 411 0146 05C0      		rjmp .L24
 412               	.L27:
 413               	.LM56:
 414 0148 2196      		adiw r28,1
 415               	.LM57:
 416 014a 83E0      		ldi r24,hi8(1001)
 417 014c C93E      		cpi r28,lo8(1001)
 418 014e D807      		cpc r29,r24
 419 0150 D0F4      		brsh .L23
 420               	.L24:
 421               	.LM58:
 422 0152 8AE1      		ldi r24,lo8(26)
 423 0154 0E94 0000 		call _Z9i2c_starth
 424 0158 8823      		tst r24
 425 015a B1F7      		brne .L27
 426               	.LM59:
 427 015c 87E5      		ldi r24,lo8(87)
 428 015e 0E94 0000 		call _Z9i2c_writeh
 429               	.LM60:
 430 0162 8091 0000 		lds r24,window_time+2
 431 0166 0E94 0000 		call _Z9i2c_writeh
 432               	.LM61:
 433 016a 8091 0000 		lds r24,window_time+1
 434 016e 0E94 0000 		call _Z9i2c_writeh
 435               	.LM62:
 436 0172 8091 0000 		lds r24,WindowUpTime+2
 437 0176 0E94 0000 		call _Z9i2c_writeh
 438               	.LM63:
 439 017a 8091 0000 		lds r24,WindowUpTime+1
 440 017e 0E94 0000 		call _Z9i2c_writeh
 441               	.LM64:
 442 0182 0E94 0000 		call _Z8i2c_stopv
 443               	.L23:
 444               	.LBE13:
 445               	.LBE12:
 446               	/* epilogue: frame size=0 */
 447 0186 DF91      		pop r29
 448 0188 CF91      		pop r28
 449 018a 0895      		ret
 450               	/* epilogue end (size=3) */
 451               	/* function void i2c_send_abend_window_data() size 39 (34) */
 452               	.LFE21:
 454               	.global	_Z22i2c_send_watering_datav
 456               	_Z22i2c_send_watering_datav:
 457               	.LFB22:
 458               	.LM65:
 459               	/* prologue: frame size=0 */
 460 018c CF93      		push r28
 461 018e DF93      		push r29
 462               	/* prologue end (size=2) */
 463               	.LBB14:
 464               	.LBB15:
 465               	.LM66:
 466 0190 C0E0      		ldi r28,lo8(0)
 467 0192 D0E0      		ldi r29,hi8(0)
 468               	.LM67:
 469 0194 05C0      		rjmp .L29
 470               	.L32:
 471               	.LM68:
 472 0196 2196      		adiw r28,1
 473               	.LM69:
 474 0198 83E0      		ldi r24,hi8(1001)
 475 019a C93E      		cpi r28,lo8(1001)
 476 019c D807      		cpc r29,r24
 477 019e 90F4      		brsh .L28
 478               	.L29:
 479               	.LM70:
 480 01a0 8AE1      		ldi r24,lo8(26)
 481 01a2 0E94 0000 		call _Z9i2c_starth
 482 01a6 8823      		tst r24
 483 01a8 B1F7      		brne .L32
 484               	.LM71:
 485 01aa 82E5      		ldi r24,lo8(82)
 486 01ac 0E94 0000 		call _Z9i2c_writeh
 487               	.LM72:
 488 01b0 8091 0000 		lds r24,BeweassernZeit+2
 489 01b4 0E94 0000 		call _Z9i2c_writeh
 490               	.LM73:
 491 01b8 8091 0000 		lds r24,BeweassernZeit+1
 492 01bc 0E94 0000 		call _Z9i2c_writeh
 493               	.LM74:
 494 01c0 0E94 0000 		call _Z8i2c_stopv
 495               	.L28:
 496               	.LBE15:
 497               	.LBE14:
 498               	/* epilogue: frame size=0 */
 499 01c4 DF91      		pop r29
 500 01c6 CF91      		pop r28
 501 01c8 0895      		ret
 502               	/* epilogue end (size=3) */
 503               	/* function void i2c_send_watering_data() size 31 (26) */
 504               	.LFE22:
 506               	.global	_Z13i2c_send_datav
 508               	_Z13i2c_send_datav:
 509               	.LFB23:
 510               	.LM75:
 511               	/* prologue: frame size=0 */
 512               	/* prologue end (size=0) */
 513               	.LBB16:
 514               	.LM76:
 515 01ca 8091 0000 		lds r24,i2c_counter
 516 01ce 9927      		clr r25
 517 01d0 8230      		cpi r24,2
 518 01d2 9105      		cpc r25,__zero_reg__
 519 01d4 B9F0      		breq .L37
 520               	.LM77:
 521 01d6 8330      		cpi r24,3
 522 01d8 9105      		cpc r25,__zero_reg__
 523 01da 2CF4      		brge .L41
 524 01dc 0097      		sbiw r24,0
 525 01de 61F0      		breq .L35
 526 01e0 0197      		sbiw r24,1
 527 01e2 69F0      		breq .L36
 528 01e4 1AC0      		rjmp .L34
 529               	.L41:
 530 01e6 8430      		cpi r24,4
 531 01e8 9105      		cpc r25,__zero_reg__
 532 01ea 91F0      		breq .L39
 533 01ec 8430      		cpi r24,4
 534 01ee 9105      		cpc r25,__zero_reg__
 535 01f0 64F0      		brlt .L38
 536 01f2 0597      		sbiw r24,5
 537 01f4 81F0      		breq .L40
 538 01f6 11C0      		rjmp .L34
 539               	.L35:
 540               	.LM78:
 541 01f8 0E94 0000 		call _Z18i2c_send_time_datav
 542               	.LM79:
 543 01fc 0EC0      		rjmp .L34
 544               	.L36:
 545               	.LM80:
 546 01fe 0E94 0000 		call _Z18i2c_send_date_datav
 547               	.LM81:
 548 0202 0BC0      		rjmp .L34
 549               	.L37:
 550               	.LM82:
 551 0204 0E94 0000 		call _Z24i2c_send_dcf_status_datav
 552               	.LM83:
 553 0208 08C0      		rjmp .L34
 554               	.L38:
 555               	.LM84:
 556 020a 0E94 0000 		call _Z26i2c_send_abend_sunset_datav
 557               	.LM85:
 558 020e 05C0      		rjmp .L34
 559               	.L39:
 560               	.LM86:
 561 0210 0E94 0000 		call _Z22i2c_send_watering_datav
 562               	.LM87:
 563 0214 02C0      		rjmp .L34
 564               	.L40:
 565               	.LM88:
 566 0216 0E94 0000 		call _Z26i2c_send_abend_window_datav
 567               	.L34:
 568               	.LM89:
 569 021a 8091 0000 		lds r24,i2c_counter
 570 021e 8F5F      		subi r24,lo8(-(1))
 571 0220 8093 0000 		sts i2c_counter,r24
 572               	.LM90:
 573 0224 8091 0000 		lds r24,i2c_counter
 574 0228 8630      		cpi r24,lo8(6)
 575 022a 11F4      		brne .L33
 576               	.LM91:
 577 022c 1092 0000 		sts i2c_counter,__zero_reg__
 578               	.L33:
 579 0230 0895      		ret
 580               	.LBE16:
 581               	/* epilogue: frame size=0 */
 582               	/* epilogue: noreturn */
 583               	/* epilogue end (size=0) */
 584               	/* function void i2c_send_data() size 54 (54) */
 585               	.LFE23:
 587               	.global	_Z11Update_LEDsv
 589               	_Z11Update_LEDsv:
 590               	.LFB24:
 591               	.LM92:
 592               	/* prologue: frame size=0 */
 593 0232 FF92      		push r15
 594 0234 0F93      		push r16
 595 0236 1F93      		push r17
 596 0238 CF93      		push r28
 597 023a DF93      		push r29
 598               	/* prologue end (size=5) */
 599 023c 00E0      		ldi r16,lo8(aInput)
 600 023e 10E0      		ldi r17,hi8(aInput)
 601 0240 34E0      		ldi r19,lo8(4)
 602 0242 F32E      		mov r15,r19
 603 0244 C0E0      		ldi r28,lo8(dOutput)
 604 0246 D0E0      		ldi r29,hi8(dOutput)
 605               	.L49:
 606               	.LBB17:
 607               	.LBB18:
 608               	.LM93:
 609 0248 C801      		movw r24,r16
 610 024a 0E94 0000 		call _ZN11TimedAnalog12IsSignalHighEv
 611 024e 8823      		tst r24
 612 0250 71F0      		breq .L47
 613               	.LM94:
 614 0252 81E0      		ldi r24,lo8(1)
 615 0254 90E0      		ldi r25,hi8(1)
 616 0256 0880      		ld r0,Y
 617 0258 02C0      		rjmp 2f
 618 025a 880F      	1:	lsl r24
 619 025c 991F      		rol r25
 620 025e 0A94      	2:	dec r0
 621 0260 E2F7      		brpl 1b
 622 0262 982F      		mov r25,r24
 623 0264 9095      		com r25
 624 0266 85B3      		in r24,53-0x20
 625 0268 8923      		and r24,r25
 626 026a 85BB      		out 53-0x20,r24
 627 026c 0BC0      		rjmp .L46
 628               	.L47:
 629               	.LM95:
 630 026e 81E0      		ldi r24,lo8(1)
 631 0270 90E0      		ldi r25,hi8(1)
 632 0272 0880      		ld r0,Y
 633 0274 02C0      		rjmp 2f
 634 0276 880F      	1:	lsl r24
 635 0278 991F      		rol r25
 636 027a 0A94      	2:	dec r0
 637 027c E2F7      		brpl 1b
 638 027e 25B3      		in r18,53-0x20
 639 0280 282B      		or r18,r24
 640 0282 25BB      		out 53-0x20,r18
 641               	.L46:
 642               	.LM96:
 643 0284 FA94      		dec r15
 644 0286 095E      		subi r16,lo8(-(23))
 645 0288 1F4F      		sbci r17,hi8(-(23))
 646 028a 2296      		adiw r28,2
 647 028c F7FE      		sbrs r15,7
 648 028e DCCF      		rjmp .L49
 649               	.LM97:
 650 0290 80B3      		in r24,48-0x20
 651 0292 9927      		clr r25
 652 0294 23E0      		ldi r18,3
 653 0296 9695      	1:	lsr r25
 654 0298 8795      		ror r24
 655 029a 2A95      		dec r18
 656 029c E1F7      		brne 1b
 657 029e 8170      		andi r24,lo8(1)
 658 02a0 9070      		andi r25,hi8(1)
 659 02a2 8823      		tst r24
 660 02a4 11F0      		breq .L50
 661               	.LM98:
 662 02a6 AD9A      		sbi 53-0x20,5
 663 02a8 01C0      		rjmp .L43
 664               	.L50:
 665               	.LM99:
 666 02aa AD98      		cbi 53-0x20,5
 667               	.L43:
 668               	.LBE18:
 669               	.LBE17:
 670               	/* epilogue: frame size=0 */
 671 02ac DF91      		pop r29
 672 02ae CF91      		pop r28
 673 02b0 1F91      		pop r17
 674 02b2 0F91      		pop r16
 675 02b4 FF90      		pop r15
 676 02b6 0895      		ret
 677               	/* epilogue end (size=6) */
 678               	/* function void Update_LEDs() size 67 (56) */
 679               	.LFE24:
 681               	.global	_Z19TimeEventInIntervalP11time_formatS0_
 683               	_Z19TimeEventInIntervalP11time_formatS0_:
 684               	.LFB25:
 685               	.LM100:
 686               	/* prologue: frame size=0 */
 687               	/* prologue end (size=0) */
 688 02b8 FC01      		movw r30,r24
 689 02ba DB01      		movw r26,r22
 690               	.LBB19:
 691               	.LM101:
 692 02bc 60E0      		ldi r22,lo8(0)
 693 02be 70E0      		ldi r23,hi8(0)
 694 02c0 8091 0000 		lds r24,time+2
 695 02c4 5CE3      		ldi r21,lo8(60)
 696 02c6 859F      		mul r24,r21
 697 02c8 9001      		movw r18,r0
 698 02ca 1124      		clr r1
 699 02cc 8091 0000 		lds r24,time+1
 700 02d0 280F      		add r18,r24
 701 02d2 311D      		adc r19,__zero_reg__
 702 02d4 8281      		ldd r24,Z+2
 703 02d6 859F      		mul r24,r21
 704 02d8 C001      		movw r24,r0
 705 02da 1124      		clr r1
 706 02dc 4181      		ldd r20,Z+1
 707 02de 840F      		add r24,r20
 708 02e0 911D      		adc r25,__zero_reg__
 709 02e2 2817      		cp r18,r24
 710 02e4 3907      		cpc r19,r25
 711 02e6 B4F0      		brlt .L55
 712               	.LM102:
 713 02e8 8091 0000 		lds r24,time+2
 714 02ec 859F      		mul r24,r21
 715 02ee 9001      		movw r18,r0
 716 02f0 1124      		clr r1
 717 02f2 8091 0000 		lds r24,time+1
 718 02f6 280F      		add r18,r24
 719 02f8 311D      		adc r19,__zero_reg__
 720 02fa FD01      		movw r30,r26
 721 02fc 8281      		ldd r24,Z+2
 722 02fe 859F      		mul r24,r21
 723 0300 C001      		movw r24,r0
 724 0302 1124      		clr r1
 725 0304 4181      		ldd r20,Z+1
 726 0306 840F      		add r24,r20
 727 0308 911D      		adc r25,__zero_reg__
 728 030a 8217      		cp r24,r18
 729 030c 9307      		cpc r25,r19
 730 030e 14F0      		brlt .L55
 731 0310 61E0      		ldi r22,lo8(1)
 732 0312 70E0      		ldi r23,hi8(1)
 733               	.L55:
 734               	.LBE19:
 735               	.LM103:
 736 0314 CB01      		movw r24,r22
 737               	/* epilogue: frame size=0 */
 738 0316 0895      		ret
 739               	/* epilogue end (size=1) */
 740               	/* function uint8_t TimeEventInInterval(time_format*, time_format*) size 48 (47) */
 741               	.LFE25:
 743               	.global	_Z25GetBewaessernZeitFromDatev
 745               	_Z25GetBewaessernZeitFromDatev:
 746               	.LFB26:
 747               	.LM104:
 748               	/* prologue: frame size=0 */
 749               	/* prologue end (size=0) */
 750               	.LBB20:
 751               	.LM105:
 752 0318 26E0      		ldi r18,lo8(6)
 753 031a 2093 0000 		sts BeweassernZeit+2,r18
 754               	.LM106:
 755 031e 8FE0      		ldi r24,lo8(15)
 756 0320 8093 0000 		sts BeweassernZeit+1,r24
 757               	.LM107:
 758 0324 1092 0000 		sts BeweassernZeit,__zero_reg__
 759               	.LM108:
 760 0328 8091 0000 		lds r24,dcf+18
 761 032c 9927      		clr r25
 762 032e 8630      		cpi r24,6
 763 0330 9105      		cpc r25,__zero_reg__
 764 0332 D1F0      		breq .L66
 765               	.LM109:
 766 0334 8730      		cpi r24,7
 767 0336 9105      		cpc r25,__zero_reg__
 768 0338 64F4      		brge .L71
 769 033a 8330      		cpi r24,3
 770 033c 9105      		cpc r25,__zero_reg__
 771 033e B9F0      		breq .L70
 772 0340 8430      		cpi r24,4
 773 0342 9105      		cpc r25,__zero_reg__
 774 0344 A4F0      		brlt .L70
 775 0346 8430      		cpi r24,4
 776 0348 9105      		cpc r25,__zero_reg__
 777 034a 71F0      		breq .L66
 778 034c 0597      		sbiw r24,5
 779 034e 61F0      		breq .L66
 780 0350 0EC0      		rjmp .L70
 781               	.L71:
 782 0352 8930      		cpi r24,9
 783 0354 9105      		cpc r25,__zero_reg__
 784 0356 41F0      		breq .L66
 785 0358 8A30      		cpi r24,10
 786 035a 9105      		cpc r25,__zero_reg__
 787 035c 44F4      		brge .L70
 788 035e 8730      		cpi r24,7
 789 0360 9105      		cpc r25,__zero_reg__
 790 0362 11F0      		breq .L66
 791 0364 0897      		sbiw r24,8
 792 0366 19F4      		brne .L70
 793               	.L66:
 794               	.LM110:
 795 0368 2093 0000 		sts BeweassernZeit+2,r18
 796               	.LM111:
 797 036c 0895      		ret
 798               	.L70:
 799               	.LM112:
 800 036e 89E1      		ldi r24,lo8(25)
 801 0370 8093 0000 		sts BeweassernZeit+2,r24
 802 0374 0895      		ret
 803               	.LBE20:
 804               	/* epilogue: frame size=0 */
 805               	/* epilogue: noreturn */
 806               	/* epilogue end (size=0) */
 807               	/* function void GetBewaessernZeitFromDate() size 49 (49) */
 808               	.LFE26:
 810               	.global	_Z22GetSensorStartFromDatev
 812               	_Z22GetSensorStartFromDatev:
 813               	.LFB27:
 814               	.LM113:
 815               	/* prologue: frame size=0 */
 816               	/* prologue end (size=0) */
 817               	.LBB21:
 818               	.LM114:
 819 0376 8091 0000 		lds r24,dcf+18
 820 037a 9927      		clr r25
 821 037c 8630      		cpi r24,6
 822 037e 9105      		cpc r25,__zero_reg__
 823 0380 51F1      		breq .L81
 824               	.LM115:
 825 0382 8730      		cpi r24,7
 826 0384 9105      		cpc r25,__zero_reg__
 827 0386 94F4      		brge .L89
 828 0388 8330      		cpi r24,3
 829 038a 9105      		cpc r25,__zero_reg__
 830 038c 01F1      		breq .L77
 831 038e 8430      		cpi r24,4
 832 0390 9105      		cpc r25,__zero_reg__
 833 0392 34F4      		brge .L90
 834 0394 8130      		cpi r24,1
 835 0396 9105      		cpc r25,__zero_reg__
 836 0398 21F1      		breq .L88
 837 039a 0297      		sbiw r24,2
 838 039c C1F0      		breq .L77
 839 039e 21C0      		rjmp .L88
 840               	.L90:
 841 03a0 8430      		cpi r24,4
 842 03a2 9105      		cpc r25,__zero_reg__
 843 03a4 E1F0      		breq .L84
 844 03a6 0597      		sbiw r24,5
 845 03a8 C1F0      		breq .L83
 846 03aa 1BC0      		rjmp .L88
 847               	.L89:
 848 03ac 8930      		cpi r24,9
 849 03ae 9105      		cpc r25,__zero_reg__
 850 03b0 B1F0      		breq .L84
 851 03b2 8A30      		cpi r24,10
 852 03b4 9105      		cpc r25,__zero_reg__
 853 03b6 34F4      		brge .L91
 854 03b8 8730      		cpi r24,7
 855 03ba 9105      		cpc r25,__zero_reg__
 856 03bc 71F0      		breq .L83
 857 03be 0897      		sbiw r24,8
 858 03c0 61F0      		breq .L83
 859 03c2 0FC0      		rjmp .L88
 860               	.L91:
 861 03c4 8B30      		cpi r24,11
 862 03c6 9105      		cpc r25,__zero_reg__
 863 03c8 61F0      		breq .L88
 864 03ca 0B97      		sbiw r24,11
 865 03cc 54F4      		brge .L88
 866               	.L77:
 867               	.LM116:
 868 03ce 81E1      		ldi r24,lo8(17)
 869               	.L92:
 870 03d0 8093 0000 		sts SensorCheckStart+2,r24
 871               	.LM117:
 872 03d4 0895      		ret
 873               	.L81:
 874               	.LM118:
 875 03d6 85E1      		ldi r24,lo8(21)
 876 03d8 FBCF      		rjmp .L92
 877               	.L83:
 878               	.LM119:
 879 03da 84E1      		ldi r24,lo8(20)
 880 03dc F9CF      		rjmp .L92
 881               	.L84:
 882               	.LM120:
 883 03de 83E1      		ldi r24,lo8(19)
 884 03e0 F7CF      		rjmp .L92
 885               	.L88:
 886               	.LM121:
 887 03e2 80E1      		ldi r24,lo8(16)
 888 03e4 F5CF      		rjmp .L92
 889               	.LBE21:
 890               	/* epilogue: frame size=0 */
 891               	/* epilogue: noreturn */
 892               	/* epilogue end (size=0) */
 893               	/* function void GetSensorStartFromDate() size 60 (60) */
 894               	.LFE27:
 896               	.global	_Z19ZeitInAbendIntervalv
 898               	_Z19ZeitInAbendIntervalv:
 899               	.LFB28:
 900               	.LM122:
 901               	/* prologue: frame size=0 */
 902               	/* prologue end (size=0) */
 903               	.LBB22:
 904               	.LM123:
 905 03e6 0E94 0000 		call _Z22GetSensorStartFromDatev
 906               	.LM124:
 907 03ea 60E0      		ldi r22,lo8(SensorCheckEnd)
 908 03ec 70E0      		ldi r23,hi8(SensorCheckEnd)
 909 03ee 80E0      		ldi r24,lo8(SensorCheckStart)
 910 03f0 90E0      		ldi r25,hi8(SensorCheckStart)
 911 03f2 0E94 0000 		call _Z19TimeEventInIntervalP11time_formatS0_
 912               	.LBE22:
 913               	.LM125:
 914 03f6 9927      		clr r25
 915               	/* epilogue: frame size=0 */
 916 03f8 0895      		ret
 917               	/* epilogue end (size=1) */
 918               	/* function uint8_t ZeitInAbendInterval() size 10 (9) */
 919               	.LFE28:
 921               	.global	_Z17ZeitZumBewaessernv
 923               	_Z17ZeitZumBewaessernv:
 924               	.LFB29:
 925               	.LM126:
 926               	/* prologue: frame size=0 */
 927               	/* prologue end (size=0) */
 928               	.LBB23:
 929               	.LM127:
 930 03fa 0E94 0000 		call _Z25GetBewaessernZeitFromDatev
 931               	.LM128:
 932 03fe 60E0      		ldi r22,lo8(BeweassernZeit)
 933 0400 70E0      		ldi r23,hi8(BeweassernZeit)
 934 0402 CB01      		movw r24,r22
 935 0404 0E94 0000 		call _Z19TimeEventInIntervalP11time_formatS0_
 936               	.LBE23:
 937               	.LM129:
 938 0408 9927      		clr r25
 939               	/* epilogue: frame size=0 */
 940 040a 0895      		ret
 941               	/* epilogue end (size=1) */
 942               	/* function uint8_t ZeitZumBewaessern() size 9 (8) */
 943               	.LFE29:
 945               	.global	_Z25WindowZeitInAbendIntervalv
 947               	_Z25WindowZeitInAbendIntervalv:
 948               	.LFB30:
 949               	.LM130:
 950               	/* prologue: frame size=8 */
 951 040c EF92      		push r14
 952 040e FF92      		push r15
 953 0410 0F93      		push r16
 954 0412 1F93      		push r17
 955 0414 CF93      		push r28
 956 0416 DF93      		push r29
 957 0418 CDB7      		in r28,__SP_L__
 958 041a DEB7      		in r29,__SP_H__
 959 041c 2897      		sbiw r28,8
 960 041e 0FB6      		in __tmp_reg__,__SREG__
 961 0420 F894      		cli
 962 0422 DEBF      		out __SP_H__,r29
 963 0424 0FBE      		out __SREG__,__tmp_reg__
 964 0426 CDBF      		out __SP_L__,r28
 965               	/* prologue end (size=14) */
 966               	.LBB24:
 967               	.LBB25:
 968               	.LM131:
 969 0428 7E01      		movw r14,r28
 970 042a 0894      		sec
 971 042c E11C      		adc r14,__zero_reg__
 972 042e F11C      		adc r15,__zero_reg__
 973 0430 1B82      		std Y+3,__zero_reg__
 974               	.LM132:
 975 0432 F701      		movw r30,r14
 976 0434 1182      		std Z+1,__zero_reg__
 977               	.LM133:
 978 0436 87E1      		ldi r24,lo8(23)
 979 0438 8F83      		std Y+7,r24
 980               	.LM134:
 981 043a 8BE3      		ldi r24,lo8(59)
 982 043c 8E83      		std Y+6,r24
 983               	.LM135:
 984 043e 80E0      		ldi r24,lo8(WindowUpTime)
 985 0440 90E0      		ldi r25,hi8(WindowUpTime)
 986 0442 0E94 0000 		call _Z28GetWindwoUpTimeFromWeekOfDayP11time_format
 987               	.LM136:
 988 0446 00E0      		ldi r16,lo8(0)
 989 0448 10E0      		ldi r17,hi8(0)
 990 044a BE01      		movw r22,r28
 991 044c 6B5F      		subi r22,lo8(-(5))
 992 044e 7F4F      		sbci r23,hi8(-(5))
 993 0450 80E0      		ldi r24,lo8(sunset_time)
 994 0452 90E0      		ldi r25,hi8(sunset_time)
 995 0454 0E94 0000 		call _Z19TimeEventInIntervalP11time_formatS0_
 996 0458 8823      		tst r24
 997 045a 39F4      		brne .L97
 998               	.LM137:
 999 045c 60E0      		ldi r22,lo8(WindowUpTime)
 1000 045e 70E0      		ldi r23,hi8(WindowUpTime)
 1001 0460 C701      		movw r24,r14
 1002 0462 0E94 0000 		call _Z19TimeEventInIntervalP11time_formatS0_
 1003 0466 8823      		tst r24
 1004 0468 11F0      		breq .L96
 1005               	.L97:
 1006 046a 01E0      		ldi r16,lo8(1)
 1007 046c 10E0      		ldi r17,hi8(1)
 1008               	.L96:
 1009               	.LBE25:
 1010               	.LBE24:
 1011               	.LM138:
 1012 046e C801      		movw r24,r16
 1013               	/* epilogue: frame size=8 */
 1014 0470 2896      		adiw r28,8
 1015 0472 0FB6      		in __tmp_reg__,__SREG__
 1016 0474 F894      		cli
 1017 0476 DEBF      		out __SP_H__,r29
 1018 0478 0FBE      		out __SREG__,__tmp_reg__
 1019 047a CDBF      		out __SP_L__,r28
 1020 047c DF91      		pop r29
 1021 047e CF91      		pop r28
 1022 0480 1F91      		pop r17
 1023 0482 0F91      		pop r16
 1024 0484 FF90      		pop r15
 1025 0486 EF90      		pop r14
 1026 0488 0895      		ret
 1027               	/* epilogue end (size=13) */
 1028               	/* function uint8_t WindowZeitInAbendInterval() size 63 (36) */
 1029               	.LFE30:
 1031               		.data
 1032               	.LC0:
 1033 0001 252E 3264 		.string	"%.2d:%.2d:%.2d - "
 1033      3A25 2E32 
 1033      643A 252E 
 1033      3264 202D 
 1033      2000 
 1034               	.LC1:
 1035 0013 506F 7765 		.string	"Power on old%d new%d\r\n"
 1035      7220 6F6E 
 1035      206F 6C64 
 1035      2564 206E 
 1035      6577 2564 
 1036               		.text
 1037               	.global	_Z16NewPowerOnStatus13PowerOnStatus
 1039               	_Z16NewPowerOnStatus13PowerOnStatus:
 1040               	.LFB31:
 1041               	.LM139:
 1042               	/* prologue: frame size=0 */
 1043 048a 1F93      		push r17
 1044 048c CF93      		push r28
 1045 048e DF93      		push r29
 1046               	/* prologue end (size=3) */
 1047 0490 182F      		mov r17,r24
 1048               	.LBB26:
 1049               	.LM140:
 1050 0492 8FE0      		ldi r24,lo8(15)
 1051 0494 90E0      		ldi r25,hi8(15)
 1052 0496 9093 0000 		sts (power_on_led)+1,r25
 1053 049a 8093 0000 		sts power_on_led,r24
 1054               	.LM141:
 1055 049e C12F      		mov r28,r17
 1056 04a0 DD27      		clr r29
 1057 04a2 2097      		sbiw r28,0
 1058 04a4 21F4      		brne .L99
 1059               	.LM142:
 1060 04a6 9093 0000 		sts (power_on_led)+1,r25
 1061 04aa 8093 0000 		sts power_on_led,r24
 1062               	.L99:
 1063               	.LM143:
 1064 04ae 8091 0000 		lds r24,time
 1065 04b2 9927      		clr r25
 1066 04b4 9F93      		push r25
 1067 04b6 8F93      		push r24
 1068 04b8 8091 0000 		lds r24,time+1
 1069 04bc 9927      		clr r25
 1070 04be 9F93      		push r25
 1071 04c0 8F93      		push r24
 1072 04c2 8091 0000 		lds r24,time+2
 1073 04c6 9927      		clr r25
 1074 04c8 9F93      		push r25
 1075 04ca 8F93      		push r24
 1076 04cc 80E0      		ldi r24,lo8(.LC0)
 1077 04ce 90E0      		ldi r25,hi8(.LC0)
 1078 04d0 9F93      		push r25
 1079 04d2 8F93      		push r24
 1080 04d4 0E94 0000 		call printf
 1081               	.LM144:
 1082 04d8 DF93      		push r29
 1083 04da CF93      		push r28
 1084 04dc 8091 0000 		lds r24,pwo_status
 1085 04e0 9927      		clr r25
 1086 04e2 9F93      		push r25
 1087 04e4 8F93      		push r24
 1088 04e6 80E0      		ldi r24,lo8(.LC1)
 1089 04e8 90E0      		ldi r25,hi8(.LC1)
 1090 04ea 9F93      		push r25
 1091 04ec 8F93      		push r24
 1092 04ee 0E94 0000 		call printf
 1093               	.LM145:
 1094 04f2 1093 0000 		sts pwo_status,r17
 1095               	.LBE26:
 1096 04f6 8DB7      		in r24,__SP_L__
 1097 04f8 9EB7      		in r25,__SP_H__
 1098 04fa 0E96      		adiw r24,14
 1099 04fc 0FB6      		in __tmp_reg__,__SREG__
 1100 04fe F894      		cli
 1101 0500 9EBF      		out __SP_H__,r25
 1102 0502 0FBE      		out __SREG__,__tmp_reg__
 1103 0504 8DBF      		out __SP_L__,r24
 1104               	/* epilogue: frame size=0 */
 1105 0506 DF91      		pop r29
 1106 0508 CF91      		pop r28
 1107 050a 1F91      		pop r17
 1108 050c 0895      		ret
 1109               	/* epilogue end (size=4) */
 1110               	/* function void NewPowerOnStatus(PowerOnStatus) size 66 (59) */
 1111               	.LFE31:
 1113               		.data
 1114               	.LC2:
 1115 002a 5761 7465 		.string	"Watering old%d new%d\r\n"
 1115      7269 6E67 
 1115      206F 6C64 
 1115      2564 206E 
 1115      6577 2564 
 1116               		.text
 1117               	.global	_Z17NewWateringStatus16WateringOnStatus
 1119               	_Z17NewWateringStatus16WateringOnStatus:
 1120               	.LFB32:
 1121               	.LM146:
 1122               	/* prologue: frame size=0 */
 1123 050e 1F93      		push r17
 1124 0510 CF93      		push r28
 1125 0512 DF93      		push r29
 1126               	/* prologue end (size=3) */
 1127 0514 182F      		mov r17,r24
 1128               	.LBB27:
 1129               	.LM147:
 1130 0516 C82F      		mov r28,r24
 1131 0518 DD27      		clr r29
 1132 051a 2097      		sbiw r28,0
 1133 051c 21F0      		breq .L104
 1134               	.LM148:
 1135 051e C130      		cpi r28,1
 1136 0520 D105      		cpc r29,__zero_reg__
 1137 0522 39F0      		breq .L105
 1138 0524 0DC0      		rjmp .L103
 1139               	.L104:
 1140               	.LM149:
 1141 0526 D093 0000 		sts (bewaessern_count)+1,r29
 1142 052a C093 0000 		sts bewaessern_count,r28
 1143               	.LM150:
 1144 052e 9498      		cbi 50-0x20,4
 1145               	.LM151:
 1146 0530 07C0      		rjmp .L103
 1147               	.L105:
 1148               	.LM152:
 1149 0532 80EE      		ldi r24,lo8(12000)
 1150 0534 9EE2      		ldi r25,hi8(12000)
 1151 0536 9093 0000 		sts (bewaessern_count)+1,r25
 1152 053a 8093 0000 		sts bewaessern_count,r24
 1153               	.LM153:
 1154 053e 949A      		sbi 50-0x20,4
 1155               	.L103:
 1156               	.LM154:
 1157 0540 8091 0000 		lds r24,time
 1158 0544 9927      		clr r25
 1159 0546 9F93      		push r25
 1160 0548 8F93      		push r24
 1161 054a 8091 0000 		lds r24,time+1
 1162 054e 9927      		clr r25
 1163 0550 9F93      		push r25
 1164 0552 8F93      		push r24
 1165 0554 8091 0000 		lds r24,time+2
 1166 0558 9927      		clr r25
 1167 055a 9F93      		push r25
 1168 055c 8F93      		push r24
 1169 055e 80E0      		ldi r24,lo8(.LC0)
 1170 0560 90E0      		ldi r25,hi8(.LC0)
 1171 0562 9F93      		push r25
 1172 0564 8F93      		push r24
 1173 0566 0E94 0000 		call printf
 1174               	.LM155:
 1175 056a DF93      		push r29
 1176 056c CF93      		push r28
 1177 056e 8091 0000 		lds r24,watering_status
 1178 0572 9927      		clr r25
 1179 0574 9F93      		push r25
 1180 0576 8F93      		push r24
 1181 0578 80E0      		ldi r24,lo8(.LC2)
 1182 057a 90E0      		ldi r25,hi8(.LC2)
 1183 057c 9F93      		push r25
 1184 057e 8F93      		push r24
 1185 0580 0E94 0000 		call printf
 1186               	.LM156:
 1187 0584 1093 0000 		sts watering_status,r17
 1188               	.LBE27:
 1189 0588 8DB7      		in r24,__SP_L__
 1190 058a 9EB7      		in r25,__SP_H__
 1191 058c 0E96      		adiw r24,14
 1192 058e 0FB6      		in __tmp_reg__,__SREG__
 1193 0590 F894      		cli
 1194 0592 9EBF      		out __SP_H__,r25
 1195 0594 0FBE      		out __SREG__,__tmp_reg__
 1196 0596 8DBF      		out __SP_L__,r24
 1197               	/* epilogue: frame size=0 */
 1198 0598 DF91      		pop r29
 1199 059a CF91      		pop r28
 1200 059c 1F91      		pop r17
 1201 059e 0895      		ret
 1202               	/* epilogue end (size=4) */
 1203               	/* function void NewWateringStatus(WateringOnStatus) size 73 (66) */
 1204               	.LFE32:
 1206               		.data
 1207               	.LC3:
 1208 0041 5374 6174 		.string	"Status old%d new%d\r\n"
 1208      7573 206F 
 1208      6C64 2564 
 1208      206E 6577 
 1208      2564 0D0A 
 1209               		.text
 1210               	.global	_Z9NewStatus6Status
 1212               	_Z9NewStatus6Status:
 1213               	.LFB33:
 1214               	.LM157:
 1215               	/* prologue: frame size=0 */
 1216 05a0 EF92      		push r14
 1217 05a2 FF92      		push r15
 1218 05a4 0F93      		push r16
 1219 05a6 1F93      		push r17
 1220 05a8 CF93      		push r28
 1221 05aa DF93      		push r29
 1222               	/* prologue end (size=6) */
 1223 05ac E82E      		mov r14,r24
 1224               	.LBB28:
 1225               	.LBB29:
 1226               	.LBB30:
 1227               	.LM158:
 1228 05ae 082F      		mov r16,r24
 1229 05b0 1127      		clr r17
 1230 05b2 0130      		cpi r16,1
 1231 05b4 1105      		cpc r17,__zero_reg__
 1232 05b6 71F0      		breq .L108
 1233               	.LM159:
 1234 05b8 0230      		cpi r16,2
 1235 05ba 1105      		cpc r17,__zero_reg__
 1236 05bc 24F4      		brge .L117
 1237 05be 0115      		cp r16,__zero_reg__
 1238 05c0 1105      		cpc r17,__zero_reg__
 1239 05c2 81F1      		breq .L114
 1240 05c4 5BC0      		rjmp .L107
 1241               	.L117:
 1242 05c6 0230      		cpi r16,2
 1243 05c8 1105      		cpc r17,__zero_reg__
 1244 05ca 79F1      		breq .L115
 1245 05cc 0330      		cpi r16,3
 1246 05ce 1105      		cpc r17,__zero_reg__
 1247 05d0 99F1      		breq .L116
 1248 05d2 54C0      		rjmp .L107
 1249               	.L108:
 1250               	.LBB31:
 1251               	.LM160:
 1252 05d4 1092 0000 		sts roladen_demaerung,__zero_reg__
 1253               	.LM161:
 1254 05d8 0E94 0000 		call _Z8LichtAusv
 1255               	.LM162:
 1256 05dc 0E94 0000 		call _Z25GetBewaessernZeitFromDatev
 1257               	.LM163:
 1258 05e0 0E94 0000 		call _Z22GetSensorStartFromDatev
 1259               	.LM164:
 1260 05e4 80E0      		ldi r24,lo8(WindowUpTime)
 1261 05e6 90E0      		ldi r25,hi8(WindowUpTime)
 1262 05e8 0E94 0000 		call _Z28GetWindwoUpTimeFromWeekOfDayP11time_format
 1263               	.LM165:
 1264 05ec 8091 0000 		lds r24,dcf+16
 1265 05f0 8093 0000 		sts current_day,r24
 1266               	.LBB32:
 1267               	.LM166:
 1268 05f4 8091 0000 		lds r24,first_time
 1269 05f8 8823      		tst r24
 1270 05fa 09F4      		brne .+2
 1271 05fc 3FC0      		rjmp .L107
 1272               	.LBB33:
 1273               	.LM167:
 1274 05fe 1092 0000 		sts first_time,__zero_reg__
 1275 0602 C0E0      		ldi r28,lo8(rollade)
 1276 0604 D0E0      		ldi r29,hi8(rollade)
 1277 0606 43E0      		ldi r20,lo8(3)
 1278 0608 F42E      		mov r15,r20
 1279               	.L113:
 1280               	.LM168:
 1281 060a 6091 0000 		lds r22,sonnen_automatik
 1282 060e CE01      		movw r24,r28
 1283 0610 0E94 0000 		call _ZN6Rolade12SetAutomatikEh
 1284               	.LM169:
 1285 0614 CE01      		movw r24,r28
 1286 0616 0E94 0000 		call _ZN6Rolade4InitEv
 1287               	.LM170:
 1288 061a FA94      		dec r15
 1289 061c 2C96      		adiw r28,12
 1290 061e F7FE      		sbrs r15,7
 1291 0620 F4CF      		rjmp .L113
 1292               	.LBE33:
 1293               	.LBE32:
 1294               	.LM171:
 1295 0622 2CC0      		rjmp .L107
 1296               	.L114:
 1297               	.LM172:
 1298 0624 0E94 0000 		call _Z8LichtAusv
 1299               	.LM173:
 1300 0628 29C0      		rjmp .L107
 1301               	.L115:
 1302               	.LM174:
 1303 062a 0E94 0000 		call _Z22GetSensorStartFromDatev
 1304               	.LM175:
 1305 062e 80E0      		ldi r24,lo8(WindowUpTime)
 1306 0630 90E0      		ldi r25,hi8(WindowUpTime)
 1307 0632 0E94 0000 		call _Z28GetWindwoUpTimeFromWeekOfDayP11time_format
 1308               	.LM176:
 1309 0636 22C0      		rjmp .L107
 1310               	.L116:
 1311               	.LM177:
 1312 0638 8091 0000 		lds r24,time+2
 1313 063c 8093 0000 		sts sunset_time+2,r24
 1314               	.LM178:
 1315 0640 8091 0000 		lds r24,time+1
 1316 0644 8093 0000 		sts sunset_time+1,r24
 1317               	.LM179:
 1318 0648 8091 0000 		lds r24,time
 1319 064c 8093 0000 		sts sunset_time,r24
 1320               	.LM180:
 1321 0650 0E94 0000 		call _Z22GetSensorStartFromDatev
 1322               	.LM181:
 1323 0654 80E0      		ldi r24,lo8(WindowUpTime)
 1324 0656 90E0      		ldi r25,hi8(WindowUpTime)
 1325 0658 0E94 0000 		call _Z28GetWindwoUpTimeFromWeekOfDayP11time_format
 1326               	.LM182:
 1327 065c 0E94 0000 		call _Z7LichtAnv
 1328               	.LM183:
 1329 0660 1092 0000 		sts roladen_demaerung,__zero_reg__
 1330               	.LM184:
 1331 0664 80EC      		ldi r24,lo8(120000)
 1332 0666 94ED      		ldi r25,hi8(120000)
 1333 0668 A1E0      		ldi r26,hlo8(120000)
 1334 066a B0E0      		ldi r27,hhi8(120000)
 1335 066c 8093 0000 		sts roller_shutters_delay,r24
 1336 0670 9093 0000 		sts (roller_shutters_delay)+1,r25
 1337 0674 A093 0000 		sts (roller_shutters_delay)+2,r26
 1338 0678 B093 0000 		sts (roller_shutters_delay)+3,r27
 1339               	.L107:
 1340               	.LBE31:
 1341               	.LBE30:
 1342               	.LM185:
 1343 067c 8091 0000 		lds r24,time
 1344 0680 9927      		clr r25
 1345 0682 9F93      		push r25
 1346 0684 8F93      		push r24
 1347 0686 8091 0000 		lds r24,time+1
 1348 068a 9927      		clr r25
 1349 068c 9F93      		push r25
 1350 068e 8F93      		push r24
 1351 0690 8091 0000 		lds r24,time+2
 1352 0694 9927      		clr r25
 1353 0696 9F93      		push r25
 1354 0698 8F93      		push r24
 1355 069a 80E0      		ldi r24,lo8(.LC0)
 1356 069c 90E0      		ldi r25,hi8(.LC0)
 1357 069e 9F93      		push r25
 1358 06a0 8F93      		push r24
 1359 06a2 0E94 0000 		call printf
 1360               	.LM186:
 1361 06a6 1F93      		push r17
 1362 06a8 0F93      		push r16
 1363 06aa 8091 0000 		lds r24,status
 1364 06ae 9927      		clr r25
 1365 06b0 9F93      		push r25
 1366 06b2 8F93      		push r24
 1367 06b4 80E0      		ldi r24,lo8(.LC3)
 1368 06b6 90E0      		ldi r25,hi8(.LC3)
 1369 06b8 9F93      		push r25
 1370 06ba 8F93      		push r24
 1371 06bc 0E94 0000 		call printf
 1372               	.LM187:
 1373 06c0 E092 0000 		sts status,r14
 1374               	.LBE29:
 1375               	.LBE28:
 1376 06c4 8DB7      		in r24,__SP_L__
 1377 06c6 9EB7      		in r25,__SP_H__
 1378 06c8 0E96      		adiw r24,14
 1379 06ca 0FB6      		in __tmp_reg__,__SREG__
 1380 06cc F894      		cli
 1381 06ce 9EBF      		out __SP_H__,r25
 1382 06d0 0FBE      		out __SREG__,__tmp_reg__
 1383 06d2 8DBF      		out __SP_L__,r24
 1384               	/* epilogue: frame size=0 */
 1385 06d4 DF91      		pop r29
 1386 06d6 CF91      		pop r28
 1387 06d8 1F91      		pop r17
 1388 06da 0F91      		pop r16
 1389 06dc FF90      		pop r15
 1390 06de EF90      		pop r14
 1391 06e0 0895      		ret
 1392               	/* epilogue end (size=7) */
 1393               	/* function void NewStatus(Status) size 160 (147) */
 1394               	.LFE33:
 1396               	.global	_Z10Takt_1_Secv
 1398               	_Z10Takt_1_Secv:
 1399               	.LFB34:
 1400               	.LM188:
 1401               	/* prologue: frame size=0 */
 1402               	/* prologue end (size=0) */
 1403               	.LBB34:
 1404               	.LM189:
 1405 06e2 8091 0000 		lds r24,time
 1406 06e6 8F5F      		subi r24,lo8(-(1))
 1407 06e8 8093 0000 		sts time,r24
 1408               	.LM190:
 1409 06ec 8091 0000 		lds r24,time
 1410 06f0 8C33      		cpi r24,lo8(60)
 1411 06f2 E0F0      		brlo .L121
 1412               	.LM191:
 1413 06f4 1092 0000 		sts time,__zero_reg__
 1414               	.LM192:
 1415 06f8 9091 0000 		lds r25,time+3
 1416 06fc 9923      		tst r25
 1417 06fe B1F4      		brne .L121
 1418               	.LM193:
 1419 0700 8091 0000 		lds r24,time+1
 1420 0704 8F5F      		subi r24,lo8(-(1))
 1421 0706 8093 0000 		sts time+1,r24
 1422               	.LM194:
 1423 070a 8091 0000 		lds r24,time+1
 1424 070e 8C33      		cpi r24,lo8(60)
 1425 0710 68F0      		brlo .L121
 1426               	.LM195:
 1427 0712 8091 0000 		lds r24,time+2
 1428 0716 8F5F      		subi r24,lo8(-(1))
 1429 0718 8093 0000 		sts time+2,r24
 1430               	.LM196:
 1431 071c 9093 0000 		sts time+1,r25
 1432               	.LM197:
 1433 0720 8091 0000 		lds r24,time+2
 1434 0724 8831      		cpi r24,lo8(24)
 1435 0726 10F0      		brlo .L121
 1436               	.LM198:
 1437 0728 9093 0000 		sts time+2,r25
 1438               	.L121:
 1439               	.LM199:
 1440 072c 8091 0000 		lds r24,current_day
 1441 0730 282F      		mov r18,r24
 1442 0732 3327      		clr r19
 1443 0734 8091 0000 		lds r24,dcf+16
 1444 0738 9927      		clr r25
 1445 073a 2817      		cp r18,r24
 1446 073c 3907      		cpc r19,r25
 1447 073e 51F0      		breq .L120
 1448               	.LM200:
 1449 0740 8091 0000 		lds r24,dcf+16
 1450 0744 8093 0000 		sts current_day,r24
 1451               	.LM201:
 1452 0748 0E94 0000 		call _Z22GetSensorStartFromDatev
 1453               	.LM202:
 1454 074c 80E0      		ldi r24,lo8(WindowUpTime)
 1455 074e 90E0      		ldi r25,hi8(WindowUpTime)
 1456 0750 0E94 0000 		call _Z28GetWindwoUpTimeFromWeekOfDayP11time_format
 1457               	.L120:
 1458 0754 0895      		ret
 1459               	.LBE34:
 1460               	/* epilogue: frame size=0 */
 1461               	/* epilogue: noreturn */
 1462               	/* epilogue end (size=0) */
 1463               	/* function void Takt_1_Sec() size 58 (58) */
 1464               	.LFE34:
 1466               	.global	_Z9TripleLedii
 1468               	_Z9TripleLedii:
 1469               	.LFB35:
 1470               	.LM203:
 1471               	/* prologue: frame size=0 */
 1472               	/* prologue end (size=0) */
 1473               	.LBB35:
 1474               	.LM204:
 1475 0756 892B      		or r24,r25
 1476 0758 49F0      		breq .L127
 1477               	.LM205:
 1478 075a 672B      		or r22,r23
 1479 075c 21F0      		breq .L128
 1480               	.LM206:
 1481 075e 9798      		cbi 50-0x20,7
 1482               	.LM207:
 1483 0760 82B3      		in r24,50-0x20
 1484 0762 90E4      		ldi r25,lo8(64)
 1485 0764 08C0      		rjmp .L133
 1486               	.L128:
 1487               	.LM208:
 1488 0766 9798      		cbi 50-0x20,7
 1489               	.LM209:
 1490 0768 9698      		cbi 50-0x20,6
 1491 076a 0895      		ret
 1492               	.L127:
 1493               	.LM210:
 1494 076c 672B      		or r22,r23
 1495 076e 31F0      		breq .L131
 1496               	.LM211:
 1497 0770 969A      		sbi 50-0x20,6
 1498               	.LM212:
 1499 0772 82B3      		in r24,50-0x20
 1500 0774 90E8      		ldi r25,lo8(-128)
 1501               	.L133:
 1502 0776 8927      		eor r24,r25
 1503 0778 82BB      		out 50-0x20,r24
 1504 077a 0895      		ret
 1505               	.L131:
 1506               	.LM213:
 1507 077c 969A      		sbi 50-0x20,6
 1508               	.LM214:
 1509 077e 979A      		sbi 50-0x20,7
 1510 0780 0895      		ret
 1511               	.LBE35:
 1512               	/* epilogue: frame size=0 */
 1513               	/* epilogue: noreturn */
 1514               	/* epilogue end (size=0) */
 1515               	/* function void TripleLed(int, int) size 22 (22) */
 1516               	.LFE35:
 1518               		.data
 1519               	.LC4:
 1520 0056 736F 6E6E 		.string	"sonne da new%d\r\n"
 1520      6520 6461 
 1520      206E 6577 
 1520      2564 0D0A 
 1520      00
 1521               	.LC5:
 1522 0067 736F 6E6E 		.string	"sonne weg new%d\r\n"
 1522      6520 7765 
 1522      6720 6E65 
 1522      7725 640D 
 1522      0A00 
 1523               		.text
 1524               	.global	_Z15Takt_10_MiliSecv
 1526               	_Z15Takt_10_MiliSecv:
 1527               	.LFB36:
 1528               	.LM215:
 1529               	/* prologue: frame size=0 */
 1530 0782 CF92      		push r12
 1531 0784 DF92      		push r13
 1532 0786 EF92      		push r14
 1533 0788 FF92      		push r15
 1534 078a 0F93      		push r16
 1535 078c 1F93      		push r17
 1536 078e CF93      		push r28
 1537 0790 DF93      		push r29
 1538               	/* prologue end (size=8) */
 1539               	.LBB36:
 1540               	.LBB37:
 1541               	.LM216:
 1542 0792 C090 0000 		lds r12,sonnen_automatik
 1543               	.LM217:
 1544 0796 86B3      		in r24,54-0x20
 1545 0798 9927      		clr r25
 1546 079a 64E0      		ldi r22,4
 1547 079c 9695      	1:	lsr r25
 1548 079e 8795      		ror r24
 1549 07a0 6A95      		dec r22
 1550 07a2 E1F7      		brne 1b
 1551 07a4 61E0      		ldi r22,lo8(1)
 1552 07a6 70E0      		ldi r23,hi8(1)
 1553 07a8 8627      		eor r24,r22
 1554 07aa 9727      		eor r25,r23
 1555 07ac 8623      		and r24,r22
 1556 07ae 9723      		and r25,r23
 1557 07b0 8093 0000 		sts sonnen_automatik,r24
 1558               	.LM218:
 1559 07b4 8091 0000 		lds r24,dcf+12
 1560 07b8 9091 0000 		lds r25,(dcf+12)+1
 1561 07bc 0A96      		adiw r24,10
 1562 07be 9093 0000 		sts (dcf+12)+1,r25
 1563 07c2 8093 0000 		sts dcf+12,r24
 1564               	.LM219:
 1565 07c6 8091 0000 		lds r24,dcf+12
 1566 07ca 9091 0000 		lds r25,(dcf+12)+1
 1567 07ce 8958      		subi r24,lo8(5001)
 1568 07d0 9341      		sbci r25,hi8(5001)
 1569 07d2 10F0      		brlo .L135
 1570               	.LM220:
 1571 07d4 1092 0000 		sts time+3,__zero_reg__
 1572               	.L135:
 1573               	.LM221:
 1574 07d8 8091 0000 		lds r24,pwo_status
 1575 07dc 8823      		tst r24
 1576 07de D9F4      		brne .L136
 1577               	.LM222:
 1578 07e0 8091 0000 		lds r24,power_on_led
 1579 07e4 9091 0000 		lds r25,(power_on_led)+1
 1580 07e8 0197      		sbiw r24,1
 1581 07ea 9093 0000 		sts (power_on_led)+1,r25
 1582 07ee 8093 0000 		sts power_on_led,r24
 1583               	.LM223:
 1584 07f2 8091 0000 		lds r24,power_on_led
 1585 07f6 9091 0000 		lds r25,(power_on_led)+1
 1586 07fa 892B      		or r24,r25
 1587 07fc 99F4      		brne .L138
 1588               	.LM224:
 1589 07fe 8091 0000 		lds r24,sonnen_automatik
 1590 0802 9927      		clr r25
 1591 0804 0E94 0000 		call _Z9TripleLedii
 1592               	.LM225:
 1593 0808 8FE0      		ldi r24,lo8(15)
 1594 080a 90E0      		ldi r25,hi8(15)
 1595 080c 9093 0000 		sts (power_on_led)+1,r25
 1596 0810 8093 0000 		sts power_on_led,r24
 1597 0814 07C0      		rjmp .L138
 1598               	.L136:
 1599               	.LM226:
 1600 0816 8091 0000 		lds r24,sonnen_automatik
 1601 081a 60E0      		ldi r22,lo8(0)
 1602 081c 70E0      		ldi r23,hi8(0)
 1603 081e 9927      		clr r25
 1604 0820 0E94 0000 		call _Z9TripleLedii
 1605               	.L138:
 1606 0824 C0E0      		ldi r28,lo8(aInput)
 1607 0826 D0E0      		ldi r29,hi8(aInput)
 1608 0828 14E0      		ldi r17,lo8(4)
 1609               	.L142:
 1610               	.LM227:
 1611 082a CE01      		movw r24,r28
 1612 082c 0E94 0000 		call _ZN11TimedAnalog12AnalogSignalEv
 1613               	.LM228:
 1614 0830 1150      		subi r17,lo8(-(-1))
 1615 0832 6796      		adiw r28,23
 1616 0834 17FF      		sbrs r17,7
 1617 0836 F9CF      		rjmp .L142
 1618               	.LM229:
 1619 0838 0E94 0000 		call check_dcf
 1620               	.LM230:
 1621 083c 8091 0000 		lds r24,watering_status
 1622 0840 9927      		clr r25
 1623 0842 0097      		sbiw r24,0
 1624 0844 19F0      		breq .L144
 1625 0846 0197      		sbiw r24,1
 1626 0848 39F0      		breq .L146
 1627 084a 18C0      		rjmp .L143
 1628               	.L144:
 1629               	.LM231:
 1630 084c 0E94 0000 		call _Z17ZeitZumBewaessernv
 1631 0850 8823      		tst r24
 1632 0852 A1F0      		breq .L143
 1633               	.LM232:
 1634 0854 81E0      		ldi r24,lo8(1)
 1635 0856 10C0      		rjmp .L180
 1636               	.L146:
 1637               	.LM233:
 1638 0858 8091 0000 		lds r24,bewaessern_count
 1639 085c 9091 0000 		lds r25,(bewaessern_count)+1
 1640 0860 0197      		sbiw r24,1
 1641 0862 9093 0000 		sts (bewaessern_count)+1,r25
 1642 0866 8093 0000 		sts bewaessern_count,r24
 1643               	.LM234:
 1644 086a 8091 0000 		lds r24,bewaessern_count
 1645 086e 9091 0000 		lds r25,(bewaessern_count)+1
 1646 0872 892B      		or r24,r25
 1647 0874 19F4      		brne .L143
 1648               	.LM235:
 1649 0876 80E0      		ldi r24,lo8(0)
 1650               	.L180:
 1651 0878 0E94 0000 		call _Z17NewWateringStatus16WateringOnStatus
 1652               	.L143:
 1653               	.LM236:
 1654 087c 0E94 0000 		call _Z11Update_LEDsv
 1655               	.LM237:
 1656 0880 8091 0000 		lds r24,status
 1657 0884 9927      		clr r25
 1658 0886 8130      		cpi r24,1
 1659 0888 9105      		cpc r25,__zero_reg__
 1660 088a 61F0      		breq .L149
 1661 088c 8230      		cpi r24,2
 1662 088e 9105      		cpc r25,__zero_reg__
 1663 0890 1CF4      		brge .L157
 1664 0892 892B      		or r24,r25
 1665 0894 69F0      		breq .L151
 1666 0896 20C0      		rjmp .L148
 1667               	.L157:
 1668 0898 8230      		cpi r24,2
 1669 089a 9105      		cpc r25,__zero_reg__
 1670 089c 71F0      		breq .L153
 1671 089e 0397      		sbiw r24,3
 1672 08a0 A1F0      		breq .L155
 1673 08a2 1AC0      		rjmp .L148
 1674               	.L149:
 1675               	.LM238:
 1676 08a4 0E94 0000 		call _Z19ZeitInAbendIntervalv
 1677 08a8 8823      		tst r24
 1678 08aa B1F0      		breq .L148
 1679               	.LM239:
 1680 08ac 82E0      		ldi r24,lo8(2)
 1681 08ae 12C0      		rjmp .L181
 1682               	.L151:
 1683               	.LM240:
 1684 08b0 8091 0000 		lds r24,time+3
 1685 08b4 8823      		tst r24
 1686 08b6 81F0      		breq .L148
 1687 08b8 0CC0      		rjmp .L182
 1688               	.L153:
 1689               	.LM241:
 1690 08ba 80E0      		ldi r24,lo8(aInput)
 1691 08bc 90E0      		ldi r25,hi8(aInput)
 1692 08be 0E94 0000 		call _ZN11TimedAnalog5LowDaEv
 1693 08c2 8823      		tst r24
 1694 08c4 49F0      		breq .L148
 1695               	.LM242:
 1696 08c6 83E0      		ldi r24,lo8(3)
 1697 08c8 05C0      		rjmp .L181
 1698               	.L155:
 1699               	.LM243:
 1700 08ca 0E94 0000 		call _Z19ZeitInAbendIntervalv
 1701 08ce 8823      		tst r24
 1702 08d0 19F4      		brne .L148
 1703               	.L182:
 1704               	.LM244:
 1705 08d2 81E0      		ldi r24,lo8(1)
 1706               	.L181:
 1707 08d4 0E94 0000 		call _Z9NewStatus6Status
 1708               	.L148:
 1709               	.LM245:
 1710 08d8 8091 0000 		lds r24,roller_shutters_delay
 1711 08dc 9091 0000 		lds r25,(roller_shutters_delay)+1
 1712 08e0 A091 0000 		lds r26,(roller_shutters_delay)+2
 1713 08e4 B091 0000 		lds r27,(roller_shutters_delay)+3
 1714 08e8 0097      		sbiw r24,0
 1715 08ea A105      		cpc r26,__zero_reg__
 1716 08ec B105      		cpc r27,__zero_reg__
 1717 08ee 51F1      		breq .L158
 1718               	.LM246:
 1719 08f0 8091 0000 		lds r24,roller_shutters_delay
 1720 08f4 9091 0000 		lds r25,(roller_shutters_delay)+1
 1721 08f8 A091 0000 		lds r26,(roller_shutters_delay)+2
 1722 08fc B091 0000 		lds r27,(roller_shutters_delay)+3
 1723 0900 0197      		sbiw r24,1
 1724 0902 A109      		sbc r26,__zero_reg__
 1725 0904 B109      		sbc r27,__zero_reg__
 1726 0906 8093 0000 		sts roller_shutters_delay,r24
 1727 090a 9093 0000 		sts (roller_shutters_delay)+1,r25
 1728 090e A093 0000 		sts (roller_shutters_delay)+2,r26
 1729 0912 B093 0000 		sts (roller_shutters_delay)+3,r27
 1730               	.LM247:
 1731 0916 8091 0000 		lds r24,roller_shutters_delay
 1732 091a 9091 0000 		lds r25,(roller_shutters_delay)+1
 1733 091e A091 0000 		lds r26,(roller_shutters_delay)+2
 1734 0922 B091 0000 		lds r27,(roller_shutters_delay)+3
 1735 0926 0097      		sbiw r24,0
 1736 0928 A105      		cpc r26,__zero_reg__
 1737 092a B105      		cpc r27,__zero_reg__
 1738 092c 59F4      		brne .L158
 1739               	.LM248:
 1740 092e 81E0      		ldi r24,lo8(1)
 1741 0930 8093 0000 		sts roladen_demaerung,r24
 1742               	.LM249:
 1743 0934 8091 0000 		lds r24,dcf+15
 1744 0938 8093 0000 		sts window_time+2,r24
 1745               	.LM250:
 1746 093c 8091 0000 		lds r24,dcf+14
 1747 0940 8093 0000 		sts window_time+1,r24
 1748               	.L158:
 1749               	.LM251:
 1750 0944 8091 0000 		lds r24,pwo_status
 1751 0948 8823      		tst r24
 1752 094a 41F4      		brne .L160
 1753               	.LM252:
 1754 094c 80E2      		ldi r24,lo8(32)
 1755 094e 0E94 0000 		call get_key_press
 1756 0952 8823      		tst r24
 1757 0954 19F0      		breq .L160
 1758               	.LM253:
 1759 0956 81E0      		ldi r24,lo8(1)
 1760 0958 0E94 0000 		call _Z16NewPowerOnStatus13PowerOnStatus
 1761               	.L160:
 1762               	.LBB38:
 1763               	.LM254:
 1764 095c 8091 0000 		lds r24,status
 1765 0960 8823      		tst r24
 1766 0962 09F4      		brne .+2
 1767 0964 A3C0      		rjmp .L164
 1768               	.LBB39:
 1769               	.LM255:
 1770 0966 C0E0      		ldi r28,lo8(0)
 1771 0968 80E0      		ldi r24,lo8(aInput+23)
 1772 096a 90E0      		ldi r25,hi8(aInput+23)
 1773 096c 0E94 0000 		call _ZN11TimedAnalog6HighDaEv
 1774 0970 8823      		tst r24
 1775 0972 29F4      		brne .L166
 1776 0974 80E0      		ldi r24,lo8(aInput+46)
 1777 0976 90E0      		ldi r25,hi8(aInput+46)
 1778 0978 0E94 0000 		call _ZN11TimedAnalog6HighDaEv
 1779 097c 8111      		cpse r24,__zero_reg__
 1780               	.L166:
 1781 097e C1E0      		ldi r28,lo8(1)
 1782               	.L165:
 1783               	.LM256:
 1784 0980 DD24      		clr r13
 1785 0982 CC23      		tst r28
 1786 0984 41F0      		breq .L167
 1787 0986 80E0      		ldi r24,lo8(aInput+69)
 1788 0988 90E0      		ldi r25,hi8(aInput+69)
 1789 098a 0E94 0000 		call _ZN11TimedAnalog6HighDaEv
 1790 098e 8823      		tst r24
 1791 0990 11F0      		breq .L167
 1792 0992 51E0      		ldi r21,lo8(1)
 1793 0994 D52E      		mov r13,r21
 1794               	.L167:
 1795               	.LM257:
 1796 0996 00E0      		ldi r16,lo8(0)
 1797 0998 80E0      		ldi r24,lo8(aInput+23)
 1798 099a 90E0      		ldi r25,hi8(aInput+23)
 1799 099c 0E94 0000 		call _ZN11TimedAnalog5LowDaEv
 1800 09a0 8823      		tst r24
 1801 09a2 31F0      		breq .L168
 1802 09a4 80E0      		ldi r24,lo8(aInput+46)
 1803 09a6 90E0      		ldi r25,hi8(aInput+46)
 1804 09a8 0E94 0000 		call _ZN11TimedAnalog5LowDaEv
 1805 09ac 8111      		cpse r24,__zero_reg__
 1806 09ae 01E0      		ldi r16,lo8(1)
 1807               	.L168:
 1808               	.LM258:
 1809 09b0 8091 0000 		lds r24,last_sonne_da
 1810 09b4 9927      		clr r25
 1811 09b6 CD2D      		mov r28,r13
 1812 09b8 DD27      		clr r29
 1813 09ba 8C17      		cp r24,r28
 1814 09bc 9D07      		cpc r25,r29
 1815 09be 39F1      		breq .L169
 1816               	.LM259:
 1817 09c0 8091 0000 		lds r24,time
 1818 09c4 9927      		clr r25
 1819 09c6 9F93      		push r25
 1820 09c8 8F93      		push r24
 1821 09ca 8091 0000 		lds r24,time+1
 1822 09ce 9927      		clr r25
 1823 09d0 9F93      		push r25
 1824 09d2 8F93      		push r24
 1825 09d4 8091 0000 		lds r24,time+2
 1826 09d8 9927      		clr r25
 1827 09da 9F93      		push r25
 1828 09dc 8F93      		push r24
 1829 09de 80E0      		ldi r24,lo8(.LC0)
 1830 09e0 90E0      		ldi r25,hi8(.LC0)
 1831 09e2 9F93      		push r25
 1832 09e4 8F93      		push r24
 1833 09e6 0E94 0000 		call printf
 1834               	.LM260:
 1835 09ea DF93      		push r29
 1836 09ec CF93      		push r28
 1837 09ee 80E0      		ldi r24,lo8(.LC4)
 1838 09f0 90E0      		ldi r25,hi8(.LC4)
 1839 09f2 9F93      		push r25
 1840 09f4 8F93      		push r24
 1841 09f6 0E94 0000 		call printf
 1842               	.LM261:
 1843 09fa D092 0000 		sts last_sonne_da,r13
 1844 09fe 8DB7      		in r24,__SP_L__
 1845 0a00 9EB7      		in r25,__SP_H__
 1846 0a02 0C96      		adiw r24,12
 1847 0a04 0FB6      		in __tmp_reg__,__SREG__
 1848 0a06 F894      		cli
 1849 0a08 9EBF      		out __SP_H__,r25
 1850 0a0a 0FBE      		out __SREG__,__tmp_reg__
 1851 0a0c 8DBF      		out __SP_L__,r24
 1852               	.L169:
 1853               	.LM262:
 1854 0a0e 8091 0000 		lds r24,last_sonne_weg
 1855 0a12 9927      		clr r25
 1856 0a14 C02F      		mov r28,r16
 1857 0a16 DD27      		clr r29
 1858 0a18 8C17      		cp r24,r28
 1859 0a1a 9D07      		cpc r25,r29
 1860 0a1c 39F1      		breq .L170
 1861               	.LM263:
 1862 0a1e 8091 0000 		lds r24,time
 1863 0a22 9927      		clr r25
 1864 0a24 9F93      		push r25
 1865 0a26 8F93      		push r24
 1866 0a28 8091 0000 		lds r24,time+1
 1867 0a2c 9927      		clr r25
 1868 0a2e 9F93      		push r25
 1869 0a30 8F93      		push r24
 1870 0a32 8091 0000 		lds r24,time+2
 1871 0a36 9927      		clr r25
 1872 0a38 9F93      		push r25
 1873 0a3a 8F93      		push r24
 1874 0a3c 80E0      		ldi r24,lo8(.LC0)
 1875 0a3e 90E0      		ldi r25,hi8(.LC0)
 1876 0a40 9F93      		push r25
 1877 0a42 8F93      		push r24
 1878 0a44 0E94 0000 		call printf
 1879               	.LM264:
 1880 0a48 DF93      		push r29
 1881 0a4a CF93      		push r28
 1882 0a4c 80E0      		ldi r24,lo8(.LC5)
 1883 0a4e 90E0      		ldi r25,hi8(.LC5)
 1884 0a50 9F93      		push r25
 1885 0a52 8F93      		push r24
 1886 0a54 0E94 0000 		call printf
 1887               	.LM265:
 1888 0a58 0093 0000 		sts last_sonne_weg,r16
 1889 0a5c 8DB7      		in r24,__SP_L__
 1890 0a5e 9EB7      		in r25,__SP_H__
 1891 0a60 0C96      		adiw r24,12
 1892 0a62 0FB6      		in __tmp_reg__,__SREG__
 1893 0a64 F894      		cli
 1894 0a66 9EBF      		out __SP_H__,r25
 1895 0a68 0FBE      		out __SREG__,__tmp_reg__
 1896 0a6a 8DBF      		out __SP_L__,r24
 1897               	.L170:
 1898 0a6c C0E0      		ldi r28,lo8(rollade)
 1899 0a6e D0E0      		ldi r29,hi8(rollade)
 1900 0a70 7E01      		movw r14,r28
 1901 0a72 13E0      		ldi r17,lo8(3)
 1902               	.L175:
 1903               	.LM266:
 1904 0a74 2C2D      		mov r18,r12
 1905 0a76 3327      		clr r19
 1906 0a78 6091 0000 		lds r22,sonnen_automatik
 1907 0a7c 862F      		mov r24,r22
 1908 0a7e 9927      		clr r25
 1909 0a80 2817      		cp r18,r24
 1910 0a82 3907      		cpc r19,r25
 1911 0a84 19F0      		breq .L174
 1912               	.LM267:
 1913 0a86 C701      		movw r24,r14
 1914 0a88 0E94 0000 		call _ZN6Rolade12SetAutomatikEh
 1915               	.L174:
 1916               	.LM268:
 1917 0a8c 2091 0000 		lds r18,roladen_demaerung
 1918 0a90 402F      		mov r20,r16
 1919 0a92 6D2D      		mov r22,r13
 1920 0a94 CE01      		movw r24,r28
 1921 0a96 0E94 0000 		call _ZN6Rolade12UpdateStatusEhhh
 1922               	.LM269:
 1923 0a9a 1150      		subi r17,lo8(-(-1))
 1924 0a9c 8CE0      		ldi r24,lo8(12)
 1925 0a9e 90E0      		ldi r25,hi8(12)
 1926 0aa0 E80E      		add r14,r24
 1927 0aa2 F91E      		adc r15,r25
 1928 0aa4 C80F      		add r28,r24
 1929 0aa6 D91F      		adc r29,r25
 1930 0aa8 17FF      		sbrs r17,7
 1931 0aaa E4CF      		rjmp .L175
 1932               	.L164:
 1933               	.LBE39:
 1934               	.LBE38:
 1935               	.LM270:
 1936 0aac 8091 0000 		lds r24,cnt
 1937 0ab0 8F5F      		subi r24,lo8(-(1))
 1938 0ab2 8093 0000 		sts cnt,r24
 1939               	.LM271:
 1940 0ab6 8091 0000 		lds r24,cnt
 1941 0aba 8031      		cpi r24,lo8(16)
 1942 0abc 20F0      		brlo .L134
 1943               	.LM272:
 1944 0abe 1092 0000 		sts cnt,__zero_reg__
 1945               	.LM273:
 1946 0ac2 0E94 0000 		call _Z13i2c_send_datav
 1947               	.L134:
 1948               	.LBE37:
 1949               	.LBE36:
 1950               	/* epilogue: frame size=0 */
 1951 0ac6 DF91      		pop r29
 1952 0ac8 CF91      		pop r28
 1953 0aca 1F91      		pop r17
 1954 0acc 0F91      		pop r16
 1955 0ace FF90      		pop r15
 1956 0ad0 EF90      		pop r14
 1957 0ad2 DF90      		pop r13
 1958 0ad4 CF90      		pop r12
 1959 0ad6 0895      		ret
 1960               	/* epilogue end (size=9) */
 1961               	/* function void Takt_10_MiliSec() size 432 (415) */
 1962               	.LFE36:
 1964               	.global	_Z8MainIdlev
 1966               	_Z8MainIdlev:
 1967               	.LFB37:
 1968               	.LM274:
 1969               	/* prologue: frame size=0 */
 1970               	/* prologue end (size=0) */
 1971               	/* epilogue: frame size=0 */
 1972 0ad8 0895      		ret
 1973               	/* epilogue end (size=1) */
 1974               	/* function void MainIdle() size 1 (0) */
 1975               	.LFE37:
 1977               	.global	_Z13InitVariablesv
 1979               	_Z13InitVariablesv:
 1980               	.LFB38:
 1981               	.LM275:
 1982               	/* prologue: frame size=0 */
 1983 0ada DF92      		push r13
 1984 0adc EF92      		push r14
 1985 0ade FF92      		push r15
 1986 0ae0 0F93      		push r16
 1987 0ae2 1F93      		push r17
 1988               	/* prologue end (size=5) */
 1989               	.LBB40:
 1990               	.LBB41:
 1991               	.LM276:
 1992 0ae4 A1E0      		ldi r26,lo8(1)
 1993 0ae6 DA2E      		mov r13,r26
 1994 0ae8 D092 0000 		sts first_time,r13
 1995               	.LM277:
 1996 0aec 40E0      		ldi r20,lo8(0)
 1997 0aee 67E0      		ldi r22,lo8(7)
 1998 0af0 80E0      		ldi r24,lo8(aInput+23)
 1999 0af2 90E0      		ldi r25,hi8(aInput+23)
 2000 0af4 0E94 0000 		call _ZN11TimedAnalog10SetChannelEhh
 2001               	.LM278:
 2002 0af8 F0E6      		ldi r31,lo8(60000)
 2003 0afa EF2E      		mov r14,r31
 2004 0afc FAEE      		ldi r31,hi8(60000)
 2005 0afe FF2E      		mov r15,r31
 2006 0b00 012D      		mov r16,__zero_reg__
 2007 0b02 112D      		mov r17,__zero_reg__
 2008 0b04 20E8      		ldi r18,lo8(240000)
 2009 0b06 39EA      		ldi r19,hi8(240000)
 2010 0b08 43E0      		ldi r20,hlo8(240000)
 2011 0b0a 50E0      		ldi r21,hhi8(240000)
 2012 0b0c 68E5      		ldi r22,lo8(600)
 2013 0b0e 72E0      		ldi r23,hi8(600)
 2014 0b10 80E0      		ldi r24,lo8(aInput+23)
 2015 0b12 90E0      		ldi r25,hi8(aInput+23)
 2016 0b14 0E94 0000 		call _ZN11TimedAnalog11SetTresholdEjmm
 2017               	.LM279:
 2018 0b18 40E0      		ldi r20,lo8(0)
 2019 0b1a 66E0      		ldi r22,lo8(6)
 2020 0b1c 80E0      		ldi r24,lo8(aInput+46)
 2021 0b1e 90E0      		ldi r25,hi8(aInput+46)
 2022 0b20 0E94 0000 		call _ZN11TimedAnalog10SetChannelEhh
 2023               	.LM280:
 2024 0b24 20E8      		ldi r18,lo8(240000)
 2025 0b26 39EA      		ldi r19,hi8(240000)
 2026 0b28 43E0      		ldi r20,hlo8(240000)
 2027 0b2a 50E0      		ldi r21,hhi8(240000)
 2028 0b2c 68E5      		ldi r22,lo8(600)
 2029 0b2e 72E0      		ldi r23,hi8(600)
 2030 0b30 80E0      		ldi r24,lo8(aInput+46)
 2031 0b32 90E0      		ldi r25,hi8(aInput+46)
 2032 0b34 0E94 0000 		call _ZN11TimedAnalog11SetTresholdEjmm
 2033               	.LM281:
 2034 0b38 40E0      		ldi r20,lo8(0)
 2035 0b3a 64E0      		ldi r22,lo8(4)
 2036 0b3c 80E0      		ldi r24,lo8(aInput+69)
 2037 0b3e 90E0      		ldi r25,hi8(aInput+69)
 2038 0b40 0E94 0000 		call _ZN11TimedAnalog10SetChannelEhh
 2039               	.LM282:
 2040 0b44 A801      		movw r20,r16
 2041 0b46 9701      		movw r18,r14
 2042 0b48 63EA      		ldi r22,lo8(675)
 2043 0b4a 72E0      		ldi r23,hi8(675)
 2044 0b4c 80E0      		ldi r24,lo8(aInput+69)
 2045 0b4e 90E0      		ldi r25,hi8(aInput+69)
 2046 0b50 0E94 0000 		call _ZN11TimedAnalog11SetTresholdEjmm
 2047               	.LM283:
 2048 0b54 40E0      		ldi r20,lo8(0)
 2049 0b56 62E0      		ldi r22,lo8(2)
 2050 0b58 80E0      		ldi r24,lo8(aInput)
 2051 0b5a 90E0      		ldi r25,hi8(aInput)
 2052 0b5c 0E94 0000 		call _ZN11TimedAnalog10SetChannelEhh
 2053               	.LM284:
 2054 0b60 A801      		movw r20,r16
 2055 0b62 9701      		movw r18,r14
 2056 0b64 64EF      		ldi r22,lo8(500)
 2057 0b66 71E0      		ldi r23,hi8(500)
 2058 0b68 80E0      		ldi r24,lo8(aInput)
 2059 0b6a 90E0      		ldi r25,hi8(aInput)
 2060 0b6c 0E94 0000 		call _ZN11TimedAnalog11SetTresholdEjmm
 2061               	.LM285:
 2062 0b70 4D2D      		mov r20,r13
 2063 0b72 63E0      		ldi r22,lo8(3)
 2064 0b74 80E0      		ldi r24,lo8(aInput+92)
 2065 0b76 90E0      		ldi r25,hi8(aInput+92)
 2066 0b78 0E94 0000 		call _ZN11TimedAnalog10SetChannelEhh
 2067               	.LM286:
 2068 0b7c EE24      		clr r14
 2069 0b7e FF24      		clr r15
 2070 0b80 8701      		movw r16,r14
 2071 0b82 A801      		movw r20,r16
 2072 0b84 9701      		movw r18,r14
 2073 0b86 64EF      		ldi r22,lo8(500)
 2074 0b88 71E0      		ldi r23,hi8(500)
 2075 0b8a 80E0      		ldi r24,lo8(aInput+92)
 2076 0b8c 90E0      		ldi r25,hi8(aInput+92)
 2077 0b8e 0E94 0000 		call _ZN11TimedAnalog11SetTresholdEjmm
 2078               	.LM287:
 2079 0b92 85B3      		in r24,53-0x20
 2080 0b94 8093 0000 		sts dOutput+3,r24
 2081               	.LM288:
 2082 0b98 87E0      		ldi r24,lo8(7)
 2083 0b9a 8093 0000 		sts dOutput+2,r24
 2084               	.LM289:
 2085 0b9e 85B3      		in r24,53-0x20
 2086 0ba0 8093 0000 		sts dOutput+5,r24
 2087               	.LM290:
 2088 0ba4 86E0      		ldi r24,lo8(6)
 2089 0ba6 8093 0000 		sts dOutput+4,r24
 2090               	.LM291:
 2091 0baa 85B3      		in r24,53-0x20
 2092 0bac 8093 0000 		sts dOutput+7,r24
 2093               	.LM292:
 2094 0bb0 94E0      		ldi r25,lo8(4)
 2095 0bb2 9093 0000 		sts dOutput+6,r25
 2096               	.LM293:
 2097 0bb6 85B3      		in r24,53-0x20
 2098 0bb8 8093 0000 		sts dOutput+1,r24
 2099               	.LM294:
 2100 0bbc 82E0      		ldi r24,lo8(2)
 2101 0bbe 8093 0000 		sts dOutput,r24
 2102               	.LM295:
 2103 0bc2 85B3      		in r24,53-0x20
 2104 0bc4 8093 0000 		sts dOutput+9,r24
 2105               	.LM296:
 2106 0bc8 83E0      		ldi r24,lo8(3)
 2107 0bca 8093 0000 		sts dOutput+8,r24
 2108 0bce 41E0      		ldi r20,lo8(1)
 2109 0bd0 50E0      		ldi r21,hi8(1)
 2110 0bd2 E0E0      		ldi r30,lo8(dOutput)
 2111 0bd4 F0E0      		ldi r31,hi8(dOutput)
 2112               	.L188:
 2113               	.LM297:
 2114 0bd6 8081      		ld r24,Z
 2115 0bd8 3296      		adiw r30,2
 2116 0bda 9A01      		movw r18,r20
 2117 0bdc 02C0      		rjmp 2f
 2118 0bde 220F      	1:	lsl r18
 2119 0be0 331F      		rol r19
 2120 0be2 8A95      	2:	dec r24
 2121 0be4 E2F7      		brpl 1b
 2122 0be6 84B3      		in r24,52-0x20
 2123 0be8 822B      		or r24,r18
 2124 0bea 84BB      		out 52-0x20,r24
 2125               	.LM298:
 2126 0bec 9150      		subi r25,lo8(-(-1))
 2127 0bee 97FF      		sbrs r25,7
 2128 0bf0 F2CF      		rjmp .L188
 2129               	.LM299:
 2130 0bf2 E0E1      		ldi r30,lo8(16)
 2131 0bf4 EE2E      		mov r14,r30
 2132 0bf6 E092 0000 		sts SensorCheckStart+2,r14
 2133               	.LM300:
 2134 0bfa 1092 0000 		sts SensorCheckStart,__zero_reg__
 2135               	.LM301:
 2136 0bfe 1092 0000 		sts SensorCheckStart+1,__zero_reg__
 2137               	.LM302:
 2138 0c02 87E1      		ldi r24,lo8(23)
 2139 0c04 8093 0000 		sts SensorCheckEnd+2,r24
 2140               	.LM303:
 2141 0c08 7EE1      		ldi r23,lo8(30)
 2142 0c0a F72E      		mov r15,r23
 2143 0c0c F092 0000 		sts SensorCheckEnd+1,r15
 2144               	.LM304:
 2145 0c10 1092 0000 		sts SensorCheckEnd,__zero_reg__
 2146               	.LM305:
 2147 0c14 86E0      		ldi r24,lo8(6)
 2148 0c16 8093 0000 		sts WindowUpTime+2,r24
 2149               	.LM306:
 2150 0c1a F092 0000 		sts WindowUpTime+1,r15
 2151               	.LM307:
 2152 0c1e 1092 0000 		sts WindowUpTime,__zero_reg__
 2153               	.LM308:
 2154 0c22 8093 0000 		sts BeweassernZeit+2,r24
 2155               	.LM309:
 2156 0c26 1FE0      		ldi r17,lo8(15)
 2157 0c28 1093 0000 		sts BeweassernZeit+1,r17
 2158               	.LM310:
 2159 0c2c 1092 0000 		sts BeweassernZeit,__zero_reg__
 2160               	.LM311:
 2161 0c30 80E0      		ldi r24,lo8(0)
 2162 0c32 0E94 0000 		call _Z9NewStatus6Status
 2163               	.LM312:
 2164 0c36 80E0      		ldi r24,lo8(0)
 2165 0c38 0E94 0000 		call _Z16NewPowerOnStatus13PowerOnStatus
 2166               	.LM313:
 2167 0c3c 80E0      		ldi r24,lo8(0)
 2168 0c3e 0E94 0000 		call _Z17NewWateringStatus16WateringOnStatus
 2169               	.LM314:
 2170 0c42 0E94 0000 		call init_dcf
 2171               	.LM315:
 2172 0c46 60E0      		ldi r22,lo8(0)
 2173 0c48 80E0      		ldi r24,lo8(rollade)
 2174 0c4a 90E0      		ldi r25,hi8(rollade)
 2175 0c4c 0E94 0000 		call _ZN6Rolade6SetPinEh
 2176               	.LM316:
 2177 0c50 00E0      		ldi r16,lo8(0)
 2178 0c52 2EE0      		ldi r18,lo8(14)
 2179 0c54 402F      		mov r20,r16
 2180 0c56 68E0      		ldi r22,lo8(8)
 2181 0c58 80E0      		ldi r24,lo8(rollade)
 2182 0c5a 90E0      		ldi r25,hi8(rollade)
 2183 0c5c 0E94 0000 		call _ZN6Rolade20SetAutomaticIntervalEhhhh
 2184               	.LM317:
 2185 0c60 61E0      		ldi r22,lo8(1)
 2186 0c62 80E0      		ldi r24,lo8(rollade+12)
 2187 0c64 90E0      		ldi r25,hi8(rollade+12)
 2188 0c66 0E94 0000 		call _ZN6Rolade6SetPinEh
 2189               	.LM318:
 2190 0c6a 0F2D      		mov r16,r15
 2191 0c6c 212F      		mov r18,r17
 2192 0c6e 40E0      		ldi r20,lo8(0)
 2193 0c70 612F      		mov r22,r17
 2194 0c72 80E0      		ldi r24,lo8(rollade+12)
 2195 0c74 90E0      		ldi r25,hi8(rollade+12)
 2196 0c76 0E94 0000 		call _ZN6Rolade20SetAutomaticIntervalEhhhh
 2197               	.LM319:
 2198 0c7a 62E0      		ldi r22,lo8(2)
 2199 0c7c 80E0      		ldi r24,lo8(rollade+24)
 2200 0c7e 90E0      		ldi r25,hi8(rollade+24)
 2201 0c80 0E94 0000 		call _ZN6Rolade6SetPinEh
 2202               	.LM320:
 2203 0c84 00E0      		ldi r16,lo8(0)
 2204 0c86 24E1      		ldi r18,lo8(20)
 2205 0c88 402F      		mov r20,r16
 2206 0c8a 6E2D      		mov r22,r14
 2207 0c8c 80E0      		ldi r24,lo8(rollade+24)
 2208 0c8e 90E0      		ldi r25,hi8(rollade+24)
 2209 0c90 0E94 0000 		call _ZN6Rolade20SetAutomaticIntervalEhhhh
 2210               	.LM321:
 2211 0c94 63E0      		ldi r22,lo8(3)
 2212 0c96 80E0      		ldi r24,lo8(rollade+36)
 2213 0c98 90E0      		ldi r25,hi8(rollade+36)
 2214 0c9a 0E94 0000 		call _ZN6Rolade6SetPinEh
 2215               	.LM322:
 2216 0c9e 24E1      		ldi r18,lo8(20)
 2217 0ca0 4F2D      		mov r20,r15
 2218 0ca2 63E1      		ldi r22,lo8(19)
 2219 0ca4 80E0      		ldi r24,lo8(rollade+36)
 2220 0ca6 90E0      		ldi r25,hi8(rollade+36)
 2221 0ca8 0E94 0000 		call _ZN6Rolade20SetAutomaticIntervalEhhhh
 2222               	.LBE41:
 2223               	.LBE40:
 2224               	/* epilogue: frame size=0 */
 2225 0cac 1F91      		pop r17
 2226 0cae 0F91      		pop r16
 2227 0cb0 FF90      		pop r15
 2228 0cb2 EF90      		pop r14
 2229 0cb4 DF90      		pop r13
 2230 0cb6 0895      		ret
 2231               	/* epilogue end (size=6) */
 2232               	/* function void InitVariables() size 240 (229) */
 2233               	.LFE38:
 2235               	.global	_Z6InitIOv
 2237               	_Z6InitIOv:
 2238               	.LFB39:
 2239               	.LM323:
 2240               	/* prologue: frame size=0 */
 2241               	/* prologue end (size=0) */
 2242 0cb8 41E0      		ldi r20,lo8(1)
 2243 0cba 50E0      		ldi r21,hi8(1)
 2244 0cbc 94E0      		ldi r25,lo8(4)
 2245 0cbe E0E0      		ldi r30,lo8(dOutput)
 2246 0cc0 F0E0      		ldi r31,hi8(dOutput)
 2247               	.L195:
 2248               	.LBB42:
 2249               	.LBB43:
 2250               	.LM324:
 2251 0cc2 8081      		ld r24,Z
 2252 0cc4 3296      		adiw r30,2
 2253 0cc6 9A01      		movw r18,r20
 2254 0cc8 02C0      		rjmp 2f
 2255 0cca 220F      	1:	lsl r18
 2256 0ccc 331F      		rol r19
 2257 0cce 8A95      	2:	dec r24
 2258 0cd0 E2F7      		brpl 1b
 2259 0cd2 84B3      		in r24,52-0x20
 2260 0cd4 822B      		or r24,r18
 2261 0cd6 84BB      		out 52-0x20,r24
 2262               	.LM325:
 2263 0cd8 9150      		subi r25,lo8(-(-1))
 2264 0cda 97FF      		sbrs r25,7
 2265 0cdc F2CF      		rjmp .L195
 2266               	.LM326:
 2267 0cde BC98      		cbi 55-0x20,4
 2268               	.LM327:
 2269 0ce0 8D9A      		sbi 49-0x20,5
 2270               	.LM328:
 2271 0ce2 87B3      		in r24,55-0x20
 2272 0ce4 8F60      		ori r24,lo8(15)
 2273 0ce6 87BB      		out 55-0x20,r24
 2274               	.LM329:
 2275 0ce8 8B98      		cbi 49-0x20,3
 2276               	.LM330:
 2277 0cea 939A      		sbi 50-0x20,3
 2278               	.LM331:
 2279 0cec A59A      		sbi 52-0x20,5
 2280               	.LM332:
 2281 0cee 81B3      		in r24,49-0x20
 2282 0cf0 806C      		ori r24,lo8(-64)
 2283 0cf2 81BB      		out 49-0x20,r24
 2284               	.LM333:
 2285 0cf4 BD98      		cbi 55-0x20,5
 2286               	.LM334:
 2287 0cf6 C59A      		sbi 56-0x20,5
 2288               	.LM335:
 2289 0cf8 8C9A      		sbi 49-0x20,4
 2290               	.LBE43:
 2291               	.LBE42:
 2292               	/* epilogue: frame size=0 */
 2293 0cfa 0895      		ret
 2294               	/* epilogue end (size=1) */
 2295               	/* function void InitIO() size 35 (34) */
 2296               	.LFE39:
 2298               		.data
 2299               	.LC6:
 2300 0079 5469 6D65 		.string	"Timer modul starting ...\n\r"
 2300      7220 6D6F 
 2300      6475 6C20 
 2300      7374 6172 
 2300      7469 6E67 
 2301               		.text
 2302               	.global	main
 2304               	main:
 2305               	.LFB40:
 2306               	.LM336:
 2307               	/* prologue: frame size=0 */
 2308 0cfc C0E0      		ldi r28,lo8(__stack - 0)
 2309 0cfe D0E0      		ldi r29,hi8(__stack - 0)
 2310 0d00 DEBF      		out __SP_H__,r29
 2311 0d02 CDBF      		out __SP_L__,r28
 2312               	/* prologue end (size=4) */
 2313               	.LBB44:
 2314               	.LM337:
 2315 0d04 87E0      		ldi r24,lo8(7)
 2316 0d06 90E0      		ldi r25,hi8(7)
 2317 0d08 0E94 0000 		call _Z9uart_initj
 2318               	.LM338:
 2319 0d0c 0E94 0000 		call _Z6InitIOv
 2320               	.LM339:
 2321 0d10 0E94 0000 		call _Z8i2c_initv
 2322               	.LM340:
 2323 0d14 0E94 0000 		call _Z13InitVariablesv
 2324               	.LM341:
 2325 0d18 80E0      		ldi r24,lo8(pm(_Z10Takt_1_Secv))
 2326 0d1a 90E0      		ldi r25,hi8(pm(_Z10Takt_1_Secv))
 2327 0d1c 0E94 0000 		call RegisterCallback1Sec
 2328               	.LM342:
 2329 0d20 80E0      		ldi r24,lo8(pm(_Z15Takt_10_MiliSecv))
 2330 0d22 90E0      		ldi r25,hi8(pm(_Z15Takt_10_MiliSecv))
 2331 0d24 0E94 0000 		call RegisterCallback10MiliSec
 2332               	.LM343:
 2333 0d28 80E0      		ldi r24,lo8(pm(KeyDebounceTimerHandler))
 2334 0d2a 90E0      		ldi r25,hi8(pm(KeyDebounceTimerHandler))
 2335 0d2c 0E94 0000 		call RegisterTimer8
 2336               	.LM344:
 2337 0d30 80E0      		ldi r24,lo8(pm(Terminal))
 2338 0d32 90E0      		ldi r25,hi8(pm(Terminal))
 2339 0d34 0E94 0000 		call RegisterUserUart
 2340               	.LM345:
 2341               	/* #APP */
 2342 0d38 7894      		sei
 2343               	.LM346:
 2344               	/* #NOAPP */
 2345 0d3a 80E0      		ldi r24,lo8(.LC6)
 2346 0d3c 90E0      		ldi r25,hi8(.LC6)
 2347 0d3e 9F93      		push r25
 2348 0d40 8F93      		push r24
 2349 0d42 0E94 0000 		call printf
 2350               	.LM347:
 2351 0d46 0E94 0000 		call ExecuteMain
 2352               	.LBE44:
 2353               	.LM348:
 2354 0d4a 0F90      		pop __tmp_reg__
 2355 0d4c 0F90      		pop __tmp_reg__
 2356 0d4e 80E0      		ldi r24,lo8(0)
 2357 0d50 90E0      		ldi r25,hi8(0)
 2358               	/* epilogue: frame size=0 */
 2359 0d52 0C94 0000 		jmp exit
 2360               	/* epilogue end (size=2) */
 2361               	/* function int main() size 46 (40) */
 2362               	.LFE40:
 2364               	.Letext0:
DEFINED SYMBOLS
                            *ABS*:00000000 main.cpp
C:\DOKUME~1\peter\LOKALE~1\Temp/ccQ3aaaa.s:3      *ABS*:0000003f __SREG__
C:\DOKUME~1\peter\LOKALE~1\Temp/ccQ3aaaa.s:4      *ABS*:0000003e __SP_H__
C:\DOKUME~1\peter\LOKALE~1\Temp/ccQ3aaaa.s:5      *ABS*:0000003d __SP_L__
C:\DOKUME~1\peter\LOKALE~1\Temp/ccQ3aaaa.s:6      *ABS*:00000000 __tmp_reg__
C:\DOKUME~1\peter\LOKALE~1\Temp/ccQ3aaaa.s:7      *ABS*:00000001 __zero_reg__
C:\DOKUME~1\peter\LOKALE~1\Temp/ccQ3aaaa.s:23     .bss:00000000 rollade
C:\DOKUME~1\peter\LOKALE~1\Temp/ccQ3aaaa.s:29     .bss:00000030 dOutput
C:\DOKUME~1\peter\LOKALE~1\Temp/ccQ3aaaa.s:35     .bss:0000003a aInput
C:\DOKUME~1\peter\LOKALE~1\Temp/ccQ3aaaa.s:41     .data:00000000 analog_factor
C:\DOKUME~1\peter\LOKALE~1\Temp/ccQ3aaaa.s:48     .bss:000000ad i2c_counter
C:\DOKUME~1\peter\LOKALE~1\Temp/ccQ3aaaa.s:54     .bss:000000ae cnt
C:\DOKUME~1\peter\LOKALE~1\Temp/ccQ3aaaa.s:60     .bss:000000af BeweassernZeit
C:\DOKUME~1\peter\LOKALE~1\Temp/ccQ3aaaa.s:66     .bss:000000b3 WindowUpTime
C:\DOKUME~1\peter\LOKALE~1\Temp/ccQ3aaaa.s:72     .bss:000000b7 SensorCheckEnd
C:\DOKUME~1\peter\LOKALE~1\Temp/ccQ3aaaa.s:78     .bss:000000bb SensorCheckStart
C:\DOKUME~1\peter\LOKALE~1\Temp/ccQ3aaaa.s:84     .bss:000000bf first_time
C:\DOKUME~1\peter\LOKALE~1\Temp/ccQ3aaaa.s:90     .bss:000000c0 current_day
C:\DOKUME~1\peter\LOKALE~1\Temp/ccQ3aaaa.s:96     .bss:000000c1 bewaessern_count
C:\DOKUME~1\peter\LOKALE~1\Temp/ccQ3aaaa.s:102    .bss:000000c3 power_on_led
C:\DOKUME~1\peter\LOKALE~1\Temp/ccQ3aaaa.s:108    .bss:000000c5 roller_shutters_delay
C:\DOKUME~1\peter\LOKALE~1\Temp/ccQ3aaaa.s:114    .bss:000000c9 window_time
C:\DOKUME~1\peter\LOKALE~1\Temp/ccQ3aaaa.s:120    .bss:000000cd sunset_time
                             .bss:000000d1 last_sonne_weg
C:\DOKUME~1\peter\LOKALE~1\Temp/ccQ3aaaa.s:122    .bss:000000d2 last_sonne_da
C:\DOKUME~1\peter\LOKALE~1\Temp/ccQ3aaaa.s:123    .bss:000000d3 roladen_demaerung
C:\DOKUME~1\peter\LOKALE~1\Temp/ccQ3aaaa.s:124    .bss:000000d4 status
C:\DOKUME~1\peter\LOKALE~1\Temp/ccQ3aaaa.s:125    .bss:000000d5 watering_status
C:\DOKUME~1\peter\LOKALE~1\Temp/ccQ3aaaa.s:126    .bss:000000d6 pwo_status
C:\DOKUME~1\peter\LOKALE~1\Temp/ccQ3aaaa.s:127    .bss:000000d7 sonnen_automatik
C:\DOKUME~1\peter\LOKALE~1\Temp/ccQ3aaaa.s:132    .text:00000000 _Z7LichtAnv
C:\DOKUME~1\peter\LOKALE~1\Temp/ccQ3aaaa.s:149    .text:00000004 _Z8LichtAusv
C:\DOKUME~1\peter\LOKALE~1\Temp/ccQ3aaaa.s:166    .text:00000008 _Z18i2c_send_time_datav
C:\DOKUME~1\peter\LOKALE~1\Temp/ccQ3aaaa.s:220    .text:0000004c _Z18i2c_send_date_datav
C:\DOKUME~1\peter\LOKALE~1\Temp/ccQ3aaaa.s:277    .text:00000098 _Z24i2c_send_dcf_status_datav
C:\DOKUME~1\peter\LOKALE~1\Temp/ccQ3aaaa.s:331    .text:000000dc _Z26i2c_send_abend_sunset_datav
C:\DOKUME~1\peter\LOKALE~1\Temp/ccQ3aaaa.s:398    .text:0000013e _Z26i2c_send_abend_window_datav
C:\DOKUME~1\peter\LOKALE~1\Temp/ccQ3aaaa.s:456    .text:0000018c _Z22i2c_send_watering_datav
C:\DOKUME~1\peter\LOKALE~1\Temp/ccQ3aaaa.s:508    .text:000001ca _Z13i2c_send_datav
C:\DOKUME~1\peter\LOKALE~1\Temp/ccQ3aaaa.s:589    .text:00000232 _Z11Update_LEDsv
C:\DOKUME~1\peter\LOKALE~1\Temp/ccQ3aaaa.s:683    .text:000002b8 _Z19TimeEventInIntervalP11time_formatS0_
C:\DOKUME~1\peter\LOKALE~1\Temp/ccQ3aaaa.s:745    .text:00000318 _Z25GetBewaessernZeitFromDatev
C:\DOKUME~1\peter\LOKALE~1\Temp/ccQ3aaaa.s:812    .text:00000376 _Z22GetSensorStartFromDatev
C:\DOKUME~1\peter\LOKALE~1\Temp/ccQ3aaaa.s:898    .text:000003e6 _Z19ZeitInAbendIntervalv
C:\DOKUME~1\peter\LOKALE~1\Temp/ccQ3aaaa.s:923    .text:000003fa _Z17ZeitZumBewaessernv
C:\DOKUME~1\peter\LOKALE~1\Temp/ccQ3aaaa.s:947    .text:0000040c _Z25WindowZeitInAbendIntervalv
C:\DOKUME~1\peter\LOKALE~1\Temp/ccQ3aaaa.s:1039   .text:0000048a _Z16NewPowerOnStatus13PowerOnStatus
C:\DOKUME~1\peter\LOKALE~1\Temp/ccQ3aaaa.s:1119   .text:0000050e _Z17NewWateringStatus16WateringOnStatus
C:\DOKUME~1\peter\LOKALE~1\Temp/ccQ3aaaa.s:1212   .text:000005a0 _Z9NewStatus6Status
C:\DOKUME~1\peter\LOKALE~1\Temp/ccQ3aaaa.s:1398   .text:000006e2 _Z10Takt_1_Secv
C:\DOKUME~1\peter\LOKALE~1\Temp/ccQ3aaaa.s:1468   .text:00000756 _Z9TripleLedii
C:\DOKUME~1\peter\LOKALE~1\Temp/ccQ3aaaa.s:1526   .text:00000782 _Z15Takt_10_MiliSecv
C:\DOKUME~1\peter\LOKALE~1\Temp/ccQ3aaaa.s:1966   .text:00000ad8 _Z8MainIdlev
C:\DOKUME~1\peter\LOKALE~1\Temp/ccQ3aaaa.s:1979   .text:00000ada _Z13InitVariablesv
C:\DOKUME~1\peter\LOKALE~1\Temp/ccQ3aaaa.s:2237   .text:00000cb8 _Z6InitIOv
C:\DOKUME~1\peter\LOKALE~1\Temp/ccQ3aaaa.s:2304   .text:00000cfc main

UNDEFINED SYMBOLS
__do_copy_data
__do_clear_bss
_Z9i2c_starth
_Z9i2c_writeh
time
_Z8i2c_stopv
dcf
_ZN11TimedAnalog12IsSignalHighEv
_Z28GetWindwoUpTimeFromWeekOfDayP11time_format
printf
_ZN6Rolade12SetAutomatikEh
_ZN6Rolade4InitEv
_ZN11TimedAnalog12AnalogSignalEv
check_dcf
_ZN11TimedAnalog5LowDaEv
get_key_press
_ZN11TimedAnalog6HighDaEv
_ZN6Rolade12UpdateStatusEhhh
_ZN11TimedAnalog10SetChannelEhh
_ZN11TimedAnalog11SetTresholdEjmm
init_dcf
_ZN6Rolade6SetPinEh
_ZN6Rolade20SetAutomaticIntervalEhhhh
__stack
_Z9uart_initj
_Z8i2c_initv
RegisterCallback1Sec
RegisterCallback10MiliSec
KeyDebounceTimerHandler
RegisterTimer8
Terminal
RegisterUserUart
ExecuteMain
exit
