   1               		.file	"rolade.cpp"
   2               		.arch atmega16
   3               	__SREG__ = 0x3f
   4               	__SP_H__ = 0x3e
   5               	__SP_L__ = 0x3d
   6               	__tmp_reg__ = 0
   7               	__zero_reg__ = 1
   8               		.global __do_copy_data
   9               		.global __do_clear_bss
  17               	.Ltext0:
  18               		.data
  19               	.LC0:
  20 0000 252E 3264 		.string	"%.2d:%.2d:%.2d - "
  20      3A25 2E32 
  20      643A 252E 
  20      3264 202D 
  20      2000 
  21               	.LC1:
  22 0012 5570 2070 		.string	"Up pin%d\r\n"
  22      696E 2564 
  22      0D0A 00
  23               		.text
  24               	.global	_ZN6Rolade2UpEv
  26               	_ZN6Rolade2UpEv:
  27               	.LFB3:
  28               	.LM1:
  29               	/* prologue: frame size=0 */
  30 0000 0F93      		push r16
  31 0002 1F93      		push r17
  32               	/* prologue end (size=2) */
  33 0004 8C01      		movw r16,r24
  34               	.LBB2:
  35               	.LM2:
  36 0006 8091 0000 		lds r24,time
  37 000a 9927      		clr r25
  38 000c 9F93      		push r25
  39 000e 8F93      		push r24
  40 0010 8091 0000 		lds r24,time+1
  41 0014 9927      		clr r25
  42 0016 9F93      		push r25
  43 0018 8F93      		push r24
  44 001a 8091 0000 		lds r24,time+2
  45 001e 9927      		clr r25
  46 0020 9F93      		push r25
  47 0022 8F93      		push r24
  48 0024 80E0      		ldi r24,lo8(.LC0)
  49 0026 90E0      		ldi r25,hi8(.LC0)
  50 0028 9F93      		push r25
  51 002a 8F93      		push r24
  52 002c 0E94 0000 		call printf
  53               	.LM3:
  54 0030 F801      		movw r30,r16
  55 0032 8081      		ld r24,Z
  56 0034 9927      		clr r25
  57 0036 9F93      		push r25
  58 0038 8F93      		push r24
  59 003a 80E0      		ldi r24,lo8(.LC1)
  60 003c 90E0      		ldi r25,hi8(.LC1)
  61 003e 9F93      		push r25
  62 0040 8F93      		push r24
  63 0042 0E94 0000 		call printf
  64               	.LM4:
  65 0046 81E0      		ldi r24,lo8(1)
  66 0048 90E0      		ldi r25,hi8(1)
  67 004a F801      		movw r30,r16
  68 004c 0080      		ld r0,Z
  69 004e 02C0      		rjmp 2f
  70 0050 880F      	1:	lsl r24
  71 0052 991F      		rol r25
  72 0054 0A94      	2:	dec r0
  73 0056 E2F7      		brpl 1b
  74 0058 982F      		mov r25,r24
  75 005a 9095      		com r25
  76 005c 88B3      		in r24,56-0x20
  77 005e 8923      		and r24,r25
  78 0060 88BB      		out 56-0x20,r24
  79               	.LBE2:
  80 0062 8DB7      		in r24,__SP_L__
  81 0064 9EB7      		in r25,__SP_H__
  82 0066 0C96      		adiw r24,12
  83 0068 0FB6      		in __tmp_reg__,__SREG__
  84 006a F894      		cli
  85 006c 9EBF      		out __SP_H__,r25
  86 006e 0FBE      		out __SREG__,__tmp_reg__
  87 0070 8DBF      		out __SP_L__,r24
  88               	/* epilogue: frame size=0 */
  89 0072 1F91      		pop r17
  90 0074 0F91      		pop r16
  91 0076 0895      		ret
  92               	/* epilogue end (size=3) */
  93               	/* function void Rolade::Up() size 60 (55) */
  94               	.LFE3:
  96               		.data
  97               	.LC2:
  98 001d 446F 776E 		.string	"Down pin%d\r\n"
  98      2070 696E 
  98      2564 0D0A 
  98      00
  99               		.text
 100               	.global	_ZN6Rolade4DownEv
 102               	_ZN6Rolade4DownEv:
 103               	.LFB4:
 104               	.LM5:
 105               	/* prologue: frame size=0 */
 106 0078 0F93      		push r16
 107 007a 1F93      		push r17
 108               	/* prologue end (size=2) */
 109 007c 8C01      		movw r16,r24
 110               	.LBB3:
 111               	.LM6:
 112 007e 8091 0000 		lds r24,time
 113 0082 9927      		clr r25
 114 0084 9F93      		push r25
 115 0086 8F93      		push r24
 116 0088 8091 0000 		lds r24,time+1
 117 008c 9927      		clr r25
 118 008e 9F93      		push r25
 119 0090 8F93      		push r24
 120 0092 8091 0000 		lds r24,time+2
 121 0096 9927      		clr r25
 122 0098 9F93      		push r25
 123 009a 8F93      		push r24
 124 009c 80E0      		ldi r24,lo8(.LC0)
 125 009e 90E0      		ldi r25,hi8(.LC0)
 126 00a0 9F93      		push r25
 127 00a2 8F93      		push r24
 128 00a4 0E94 0000 		call printf
 129               	.LM7:
 130 00a8 F801      		movw r30,r16
 131 00aa 8081      		ld r24,Z
 132 00ac 9927      		clr r25
 133 00ae 9F93      		push r25
 134 00b0 8F93      		push r24
 135 00b2 80E0      		ldi r24,lo8(.LC2)
 136 00b4 90E0      		ldi r25,hi8(.LC2)
 137 00b6 9F93      		push r25
 138 00b8 8F93      		push r24
 139 00ba 0E94 0000 		call printf
 140               	.LM8:
 141 00be 81E0      		ldi r24,lo8(1)
 142 00c0 90E0      		ldi r25,hi8(1)
 143 00c2 F801      		movw r30,r16
 144 00c4 0080      		ld r0,Z
 145 00c6 02C0      		rjmp 2f
 146 00c8 880F      	1:	lsl r24
 147 00ca 991F      		rol r25
 148 00cc 0A94      	2:	dec r0
 149 00ce E2F7      		brpl 1b
 150 00d0 28B3      		in r18,56-0x20
 151 00d2 282B      		or r18,r24
 152 00d4 28BB      		out 56-0x20,r18
 153               	.LBE3:
 154 00d6 8DB7      		in r24,__SP_L__
 155 00d8 9EB7      		in r25,__SP_H__
 156 00da 0C96      		adiw r24,12
 157 00dc 0FB6      		in __tmp_reg__,__SREG__
 158 00de F894      		cli
 159 00e0 9EBF      		out __SP_H__,r25
 160 00e2 0FBE      		out __SREG__,__tmp_reg__
 161 00e4 8DBF      		out __SP_L__,r24
 162               	/* epilogue: frame size=0 */
 163 00e6 1F91      		pop r17
 164 00e8 0F91      		pop r16
 165 00ea 0895      		ret
 166               	/* epilogue end (size=3) */
 167               	/* function void Rolade::Down() size 58 (53) */
 168               	.LFE4:
 170               	.global	_ZN6Rolade6SetPinEh
 172               	_ZN6Rolade6SetPinEh:
 173               	.LFB5:
 174               	.LM9:
 175               	/* prologue: frame size=0 */
 176               	/* prologue end (size=0) */
 177 00ec FC01      		movw r30,r24
 178               	.LBB4:
 179               	.LM10:
 180 00ee 6083      		st Z,r22
 181               	.LM11:
 182 00f0 CF01      		movw r24,r30
 183 00f2 0E94 0000 		call _ZN6Rolade2UpEv
 184               	.LBE4:
 185               	/* epilogue: frame size=0 */
 186 00f6 0895      		ret
 187               	/* epilogue end (size=1) */
 188               	/* function void Rolade::SetPin(uint8_t) size 6 (5) */
 189               	.LFE5:
 191               	.global	_Z11IsTimeEventP11time_format
 193               	_Z11IsTimeEventP11time_format:
 194               	.LFB6:
 195               	.LM12:
 196               	/* prologue: frame size=0 */
 197               	/* prologue end (size=0) */
 198 00f8 FC01      		movw r30,r24
 199               	.LBB5:
 200               	.LM13:
 201 00fa 8281      		ldd r24,Z+2
 202 00fc 8823      		tst r24
 203 00fe 19F4      		brne .L6
 204               	.LM14:
 205 0100 8181      		ldd r24,Z+1
 206 0102 8823      		tst r24
 207 0104 D1F0      		breq .L5
 208               	.L6:
 209               	.LM15:
 210 0106 60E0      		ldi r22,lo8(0)
 211 0108 70E0      		ldi r23,hi8(0)
 212 010a 8091 0000 		lds r24,time+2
 213 010e 9CE3      		ldi r25,lo8(60)
 214 0110 899F      		mul r24,r25
 215 0112 9001      		movw r18,r0
 216 0114 1124      		clr r1
 217 0116 8091 0000 		lds r24,time+1
 218 011a 280F      		add r18,r24
 219 011c 311D      		adc r19,__zero_reg__
 220 011e 8281      		ldd r24,Z+2
 221 0120 899F      		mul r24,r25
 222 0122 C001      		movw r24,r0
 223 0124 1124      		clr r1
 224 0126 4181      		ldd r20,Z+1
 225 0128 840F      		add r24,r20
 226 012a 911D      		adc r25,__zero_reg__
 227 012c 2817      		cp r18,r24
 228 012e 3907      		cpc r19,r25
 229 0130 11F4      		brne .L7
 230 0132 61E0      		ldi r22,lo8(1)
 231 0134 70E0      		ldi r23,hi8(1)
 232               	.L7:
 233 0136 CB01      		movw r24,r22
 234 0138 0895      		ret
 235               	.L5:
 236               	.LM16:
 237 013a 80E0      		ldi r24,lo8(0)
 238 013c 90E0      		ldi r25,hi8(0)
 239               	.LBE5:
 240               	.LM17:
 241 013e 0895      		ret
 242               	/* epilogue: frame size=0 */
 243               	/* epilogue: noreturn */
 244               	/* epilogue end (size=0) */
 245               	/* function uint8_t IsTimeEvent(time_format*) size 36 (36) */
 246               	.LFE6:
 248               	.global	_Z10IsTimeLessP11time_format
 250               	_Z10IsTimeLessP11time_format:
 251               	.LFB7:
 252               	.LM18:
 253               	/* prologue: frame size=0 */
 254               	/* prologue end (size=0) */
 255 0140 FC01      		movw r30,r24
 256               	.LBB6:
 257               	.LM19:
 258 0142 8281      		ldd r24,Z+2
 259 0144 8823      		tst r24
 260 0146 19F4      		brne .L11
 261               	.LM20:
 262 0148 8181      		ldd r24,Z+1
 263 014a 8823      		tst r24
 264 014c D1F0      		breq .L10
 265               	.L11:
 266               	.LM21:
 267 014e 60E0      		ldi r22,lo8(0)
 268 0150 70E0      		ldi r23,hi8(0)
 269 0152 8091 0000 		lds r24,time+2
 270 0156 9CE3      		ldi r25,lo8(60)
 271 0158 899F      		mul r24,r25
 272 015a 9001      		movw r18,r0
 273 015c 1124      		clr r1
 274 015e 8091 0000 		lds r24,time+1
 275 0162 280F      		add r18,r24
 276 0164 311D      		adc r19,__zero_reg__
 277 0166 8281      		ldd r24,Z+2
 278 0168 899F      		mul r24,r25
 279 016a C001      		movw r24,r0
 280 016c 1124      		clr r1
 281 016e 4181      		ldd r20,Z+1
 282 0170 840F      		add r24,r20
 283 0172 911D      		adc r25,__zero_reg__
 284 0174 2817      		cp r18,r24
 285 0176 3907      		cpc r19,r25
 286 0178 14F4      		brge .L12
 287 017a 61E0      		ldi r22,lo8(1)
 288 017c 70E0      		ldi r23,hi8(1)
 289               	.L12:
 290 017e CB01      		movw r24,r22
 291 0180 0895      		ret
 292               	.L10:
 293               	.LM22:
 294 0182 81E0      		ldi r24,lo8(1)
 295 0184 90E0      		ldi r25,hi8(1)
 296               	.LBE6:
 297               	.LM23:
 298 0186 0895      		ret
 299               	/* epilogue: frame size=0 */
 300               	/* epilogue: noreturn */
 301               	/* epilogue end (size=0) */
 302               	/* function uint8_t IsTimeLess(time_format*) size 36 (36) */
 303               	.LFE7:
 305               	.global	_Z13IsTimeGreaterhP11time_format
 307               	_Z13IsTimeGreaterhP11time_format:
 308               	.LFB8:
 309               	.LM24:
 310               	/* prologue: frame size=0 */
 311               	/* prologue end (size=0) */
 312 0188 FB01      		movw r30,r22
 313               	.LBB7:
 314               	.LM25:
 315 018a 8281      		ldd r24,Z+2
 316 018c 8823      		tst r24
 317 018e 19F4      		brne .L16
 318               	.LM26:
 319 0190 8181      		ldd r24,Z+1
 320 0192 8823      		tst r24
 321 0194 D1F0      		breq .L15
 322               	.L16:
 323               	.LM27:
 324 0196 60E0      		ldi r22,lo8(0)
 325 0198 70E0      		ldi r23,hi8(0)
 326 019a 8091 0000 		lds r24,time+2
 327 019e 9CE3      		ldi r25,lo8(60)
 328 01a0 899F      		mul r24,r25
 329 01a2 9001      		movw r18,r0
 330 01a4 1124      		clr r1
 331 01a6 8091 0000 		lds r24,time+1
 332 01aa 280F      		add r18,r24
 333 01ac 311D      		adc r19,__zero_reg__
 334 01ae 8281      		ldd r24,Z+2
 335 01b0 899F      		mul r24,r25
 336 01b2 C001      		movw r24,r0
 337 01b4 1124      		clr r1
 338 01b6 4181      		ldd r20,Z+1
 339 01b8 840F      		add r24,r20
 340 01ba 911D      		adc r25,__zero_reg__
 341 01bc 8217      		cp r24,r18
 342 01be 9307      		cpc r25,r19
 343 01c0 14F4      		brge .L17
 344 01c2 61E0      		ldi r22,lo8(1)
 345 01c4 70E0      		ldi r23,hi8(1)
 346               	.L17:
 347 01c6 CB01      		movw r24,r22
 348 01c8 0895      		ret
 349               	.L15:
 350               	.LM28:
 351 01ca 81E0      		ldi r24,lo8(1)
 352 01cc 90E0      		ldi r25,hi8(1)
 353               	.LBE7:
 354               	.LM29:
 355 01ce 0895      		ret
 356               	/* epilogue: frame size=0 */
 357               	/* epilogue: noreturn */
 358               	/* epilogue end (size=0) */
 359               	/* function uint8_t IsTimeGreater(uint8_t, time_format*) size 36 (36) */
 360               	.LFE8:
 362               	.global	_Z12IsInIntervalP11time_formatS0_
 364               	_Z12IsInIntervalP11time_formatS0_:
 365               	.LFB9:
 366               	.LM30:
 367               	/* prologue: frame size=0 */
 368               	/* prologue end (size=0) */
 369 01d0 FC01      		movw r30,r24
 370 01d2 DB01      		movw r26,r22
 371               	.LBB8:
 372               	.LM31:
 373 01d4 60E0      		ldi r22,lo8(0)
 374 01d6 70E0      		ldi r23,hi8(0)
 375 01d8 8091 0000 		lds r24,time+2
 376 01dc 5CE3      		ldi r21,lo8(60)
 377 01de 859F      		mul r24,r21
 378 01e0 9001      		movw r18,r0
 379 01e2 1124      		clr r1
 380 01e4 8091 0000 		lds r24,time+1
 381 01e8 280F      		add r18,r24
 382 01ea 311D      		adc r19,__zero_reg__
 383 01ec 8281      		ldd r24,Z+2
 384 01ee 859F      		mul r24,r21
 385 01f0 C001      		movw r24,r0
 386 01f2 1124      		clr r1
 387 01f4 4181      		ldd r20,Z+1
 388 01f6 840F      		add r24,r20
 389 01f8 911D      		adc r25,__zero_reg__
 390 01fa 2817      		cp r18,r24
 391 01fc 3907      		cpc r19,r25
 392 01fe B4F0      		brlt .L20
 393               	.LM32:
 394 0200 8091 0000 		lds r24,time+2
 395 0204 859F      		mul r24,r21
 396 0206 9001      		movw r18,r0
 397 0208 1124      		clr r1
 398 020a 8091 0000 		lds r24,time+1
 399 020e 280F      		add r18,r24
 400 0210 311D      		adc r19,__zero_reg__
 401 0212 FD01      		movw r30,r26
 402 0214 8281      		ldd r24,Z+2
 403 0216 859F      		mul r24,r21
 404 0218 C001      		movw r24,r0
 405 021a 1124      		clr r1
 406 021c 4181      		ldd r20,Z+1
 407 021e 840F      		add r24,r20
 408 0220 911D      		adc r25,__zero_reg__
 409 0222 8217      		cp r24,r18
 410 0224 9307      		cpc r25,r19
 411 0226 14F0      		brlt .L20
 412 0228 61E0      		ldi r22,lo8(1)
 413 022a 70E0      		ldi r23,hi8(1)
 414               	.L20:
 415               	.LBE8:
 416               	.LM33:
 417 022c CB01      		movw r24,r22
 418               	/* epilogue: frame size=0 */
 419 022e 0895      		ret
 420               	/* epilogue end (size=1) */
 421               	/* function uint8_t IsInInterval(time_format*, time_format*) size 48 (47) */
 422               	.LFE9:
 424               	.global	_ZN6Rolade20SetAutomaticIntervalEhhhh
 426               	_ZN6Rolade20SetAutomaticIntervalEhhhh:
 427               	.LFB10:
 428               	.LM34:
 429               	/* prologue: frame size=0 */
 430 0230 0F93      		push r16
 431               	/* prologue end (size=1) */
 432 0232 FC01      		movw r30,r24
 433               	.LBB9:
 434               	.LM35:
 435 0234 6483      		std Z+4,r22
 436               	.LM36:
 437 0236 4383      		std Z+3,r20
 438               	.LM37:
 439 0238 2087      		std Z+8,r18
 440               	.LM38:
 441 023a 0783      		std Z+7,r16
 442               	.LBE9:
 443               	/* epilogue: frame size=0 */
 444 023c 0F91      		pop r16
 445 023e 0895      		ret
 446               	/* epilogue end (size=2) */
 447               	/* function void Rolade::SetAutomaticInterval(uint8_t, uint8_t, uint8_t, uint8_t) size 8 (5) */
 448               	.LFE10:
 450               	.global	_Z28GetWindwoUpTimeFromWeekOfDayP11time_format
 452               	_Z28GetWindwoUpTimeFromWeekOfDayP11time_format:
 453               	.LFB11:
 454               	.LM39:
 455               	/* prologue: frame size=0 */
 456               	/* prologue end (size=0) */
 457 0240 FC01      		movw r30,r24
 458               	.LBB10:
 459               	.LM40:
 460 0242 27E0      		ldi r18,lo8(7)
 461 0244 2283      		std Z+2,r18
 462               	.LM41:
 463 0246 1182      		std Z+1,__zero_reg__
 464               	.LM42:
 465 0248 8091 0000 		lds r24,dcf+16
 466 024c 9927      		clr r25
 467 024e 8630      		cpi r24,6
 468 0250 9105      		cpc r25,__zero_reg__
 469 0252 19F0      		breq .L24
 470               	.LM43:
 471 0254 0797      		sbiw r24,7
 472 0256 29F0      		breq .L25
 473 0258 0895      		ret
 474               	.L24:
 475               	.LM44:
 476 025a 2283      		std Z+2,r18
 477               	.LM45:
 478 025c 8EE1      		ldi r24,lo8(30)
 479 025e 8183      		std Z+1,r24
 480               	.LM46:
 481 0260 0895      		ret
 482               	.L25:
 483               	.LM47:
 484 0262 88E0      		ldi r24,lo8(8)
 485 0264 8283      		std Z+2,r24
 486               	.LM48:
 487 0266 1182      		std Z+1,__zero_reg__
 488 0268 0895      		ret
 489               	.LBE10:
 490               	/* epilogue: frame size=0 */
 491               	/* epilogue: noreturn */
 492               	/* epilogue end (size=0) */
 493               	/* function void GetWindwoUpTimeFromWeekOfDay(time_format*) size 22 (22) */
 494               	.LFE11:
 496               		.data
 497               	.LC3:
 498 002a 526F 6C61 		.string	"Rolade Status pin%d old%d new%d\r\n"
 498      6465 2053 
 498      7461 7475 
 498      7320 7069 
 498      6E25 6420 
 499               		.text
 500               	.global	_ZN6Rolade8NewStateE12RollerStatus
 502               	_ZN6Rolade8NewStateE12RollerStatus:
 503               	.LFB18:
 504               	.LM49:
 505               	/* prologue: frame size=0 */
 506 026a FF92      		push r15
 507 026c 0F93      		push r16
 508 026e 1F93      		push r17
 509 0270 CF93      		push r28
 510 0272 DF93      		push r29
 511               	/* prologue end (size=5) */
 512 0274 8C01      		movw r16,r24
 513 0276 F62E      		mov r15,r22
 514               	.LBB11:
 515               	.LM50:
 516 0278 C62F      		mov r28,r22
 517 027a DD27      		clr r29
 518 027c C230      		cpi r28,2
 519 027e D105      		cpc r29,__zero_reg__
 520 0280 51F0      		breq .L30
 521               	.LM51:
 522 0282 C330      		cpi r28,3
 523 0284 D105      		cpc r29,__zero_reg__
 524 0286 1CF4      		brge .L32
 525 0288 2097      		sbiw r28,0
 526 028a 29F0      		breq .L30
 527 028c 0AC0      		rjmp .L27
 528               	.L32:
 529 028e C330      		cpi r28,3
 530 0290 D105      		cpc r29,__zero_reg__
 531 0292 29F0      		breq .L31
 532 0294 06C0      		rjmp .L27
 533               	.L30:
 534               	.LM52:
 535 0296 C801      		movw r24,r16
 536 0298 0E94 0000 		call _ZN6Rolade2UpEv
 537               	.LM53:
 538 029c 02C0      		rjmp .L27
 539               	.L31:
 540               	.LM54:
 541 029e 0E94 0000 		call _ZN6Rolade4DownEv
 542               	.L27:
 543               	.LM55:
 544 02a2 8091 0000 		lds r24,time
 545 02a6 9927      		clr r25
 546 02a8 9F93      		push r25
 547 02aa 8F93      		push r24
 548 02ac 8091 0000 		lds r24,time+1
 549 02b0 9927      		clr r25
 550 02b2 9F93      		push r25
 551 02b4 8F93      		push r24
 552 02b6 8091 0000 		lds r24,time+2
 553 02ba 9927      		clr r25
 554 02bc 9F93      		push r25
 555 02be 8F93      		push r24
 556 02c0 80E0      		ldi r24,lo8(.LC0)
 557 02c2 90E0      		ldi r25,hi8(.LC0)
 558 02c4 9F93      		push r25
 559 02c6 8F93      		push r24
 560 02c8 0E94 0000 		call printf
 561               	.LM56:
 562 02cc DF93      		push r29
 563 02ce CF93      		push r28
 564 02d0 F801      		movw r30,r16
 565 02d2 8285      		ldd r24,Z+10
 566 02d4 9927      		clr r25
 567 02d6 9F93      		push r25
 568 02d8 8F93      		push r24
 569 02da 8081      		ld r24,Z
 570 02dc 9927      		clr r25
 571 02de 9F93      		push r25
 572 02e0 8F93      		push r24
 573 02e2 80E0      		ldi r24,lo8(.LC3)
 574 02e4 90E0      		ldi r25,hi8(.LC3)
 575 02e6 9F93      		push r25
 576 02e8 8F93      		push r24
 577 02ea 0E94 0000 		call printf
 578               	.LM57:
 579 02ee F801      		movw r30,r16
 580 02f0 F286      		std Z+10,r15
 581               	.LBE11:
 582 02f2 8DB7      		in r24,__SP_L__
 583 02f4 9EB7      		in r25,__SP_H__
 584 02f6 4096      		adiw r24,16
 585 02f8 0FB6      		in __tmp_reg__,__SREG__
 586 02fa F894      		cli
 587 02fc 9EBF      		out __SP_H__,r25
 588 02fe 0FBE      		out __SREG__,__tmp_reg__
 589 0300 8DBF      		out __SP_L__,r24
 590               	/* epilogue: frame size=0 */
 591 0302 DF91      		pop r29
 592 0304 CF91      		pop r28
 593 0306 1F91      		pop r17
 594 0308 0F91      		pop r16
 595 030a FF90      		pop r15
 596 030c 0895      		ret
 597               	/* epilogue end (size=6) */
 598               	/* function void Rolade::NewState(RollerStatus) size 82 (71) */
 599               	.LFE18:
 601               		.data
 602               	.LC4:
 603 004c 526F 6C61 		.string	"Rolade Init pin%d\n\r"
 603      6465 2049 
 603      6E69 7420 
 603      7069 6E25 
 603      640A 0D00 
 604               		.text
 605               	.global	_ZN6Rolade4InitEv
 607               	_ZN6Rolade4InitEv:
 608               	.LFB12:
 609               	.LM58:
 610               	/* prologue: frame size=4 */
 611 030e DF92      		push r13
 612 0310 EF92      		push r14
 613 0312 FF92      		push r15
 614 0314 0F93      		push r16
 615 0316 1F93      		push r17
 616 0318 CF93      		push r28
 617 031a DF93      		push r29
 618 031c CDB7      		in r28,__SP_L__
 619 031e DEB7      		in r29,__SP_H__
 620 0320 2497      		sbiw r28,4
 621 0322 0FB6      		in __tmp_reg__,__SREG__
 622 0324 F894      		cli
 623 0326 DEBF      		out __SP_H__,r29
 624 0328 0FBE      		out __SREG__,__tmp_reg__
 625 032a CDBF      		out __SP_L__,r28
 626               	/* prologue end (size=15) */
 627 032c 8C01      		movw r16,r24
 628               	.LBB12:
 629               	.LBB13:
 630               	.LM59:
 631 032e 8091 0000 		lds r24,time
 632 0332 9927      		clr r25
 633 0334 9F93      		push r25
 634 0336 8F93      		push r24
 635 0338 8091 0000 		lds r24,time+1
 636 033c 9927      		clr r25
 637 033e 9F93      		push r25
 638 0340 8F93      		push r24
 639 0342 8091 0000 		lds r24,time+2
 640 0346 9927      		clr r25
 641 0348 9F93      		push r25
 642 034a 8F93      		push r24
 643 034c 80E0      		ldi r24,lo8(.LC0)
 644 034e 90E0      		ldi r25,hi8(.LC0)
 645 0350 9F93      		push r25
 646 0352 8F93      		push r24
 647 0354 0E94 0000 		call printf
 648               	.LM60:
 649 0358 F801      		movw r30,r16
 650 035a 8081      		ld r24,Z
 651 035c 9927      		clr r25
 652 035e 9F93      		push r25
 653 0360 8F93      		push r24
 654 0362 80E0      		ldi r24,lo8(.LC4)
 655 0364 90E0      		ldi r25,hi8(.LC4)
 656 0366 9F93      		push r25
 657 0368 8F93      		push r24
 658 036a 0E94 0000 		call printf
 659               	.LM61:
 660 036e CE01      		movw r24,r28
 661 0370 0196      		adiw r24,1
 662 0372 0E94 0000 		call _Z28GetWindwoUpTimeFromWeekOfDayP11time_format
 663               	.LM62:
 664 0376 CE01      		movw r24,r28
 665 0378 0196      		adiw r24,1
 666 037a 0E94 0000 		call _Z10IsTimeLessP11time_format
 667 037e D82E      		mov r13,r24
 668 0380 8DB7      		in r24,__SP_L__
 669 0382 9EB7      		in r25,__SP_H__
 670 0384 0C96      		adiw r24,12
 671 0386 0FB6      		in __tmp_reg__,__SREG__
 672 0388 F894      		cli
 673 038a 9EBF      		out __SP_H__,r25
 674 038c 0FBE      		out __SREG__,__tmp_reg__
 675 038e 8DBF      		out __SP_L__,r24
 676 0390 DD20      		tst r13
 677 0392 11F0      		breq .L34
 678               	.LM63:
 679 0394 63E0      		ldi r22,lo8(3)
 680 0396 19C0      		rjmp .L37
 681               	.L34:
 682               	.LM64:
 683 0398 82E0      		ldi r24,lo8(2)
 684 039a E82E      		mov r14,r24
 685 039c F12C      		mov r15,__zero_reg__
 686 039e E00E      		add r14,r16
 687 03a0 F11E      		adc r15,r17
 688 03a2 B701      		movw r22,r14
 689 03a4 CE01      		movw r24,r28
 690 03a6 0196      		adiw r24,1
 691 03a8 0E94 0000 		call _Z12IsInIntervalP11time_formatS0_
 692 03ac 8823      		tst r24
 693 03ae 11F0      		breq .L35
 694               	.LM65:
 695 03b0 6D2D      		mov r22,r13
 696 03b2 0BC0      		rjmp .L37
 697               	.L35:
 698               	.LM66:
 699 03b4 C801      		movw r24,r16
 700 03b6 0696      		adiw r24,6
 701 03b8 BC01      		movw r22,r24
 702 03ba C701      		movw r24,r14
 703 03bc 0E94 0000 		call _Z12IsInIntervalP11time_formatS0_
 704 03c0 8823      		tst r24
 705 03c2 11F0      		breq .L36
 706               	.LM67:
 707 03c4 61E0      		ldi r22,lo8(1)
 708 03c6 01C0      		rjmp .L37
 709               	.L36:
 710               	.LM68:
 711 03c8 62E0      		ldi r22,lo8(2)
 712               	.L37:
 713 03ca C801      		movw r24,r16
 714 03cc 0E94 0000 		call _ZN6Rolade8NewStateE12RollerStatus
 715               	.LBE13:
 716               	.LBE12:
 717               	/* epilogue: frame size=4 */
 718 03d0 2496      		adiw r28,4
 719 03d2 0FB6      		in __tmp_reg__,__SREG__
 720 03d4 F894      		cli
 721 03d6 DEBF      		out __SP_H__,r29
 722 03d8 0FBE      		out __SREG__,__tmp_reg__
 723 03da CDBF      		out __SP_L__,r28
 724 03dc DF91      		pop r29
 725 03de CF91      		pop r28
 726 03e0 1F91      		pop r17
 727 03e2 0F91      		pop r16
 728 03e4 FF90      		pop r15
 729 03e6 EF90      		pop r14
 730 03e8 DF90      		pop r13
 731 03ea 0895      		ret
 732               	/* epilogue end (size=14) */
 733               	/* function void Rolade::Init() size 111 (82) */
 734               	.LFE12:
 736               		.data
 737               	.LC5:
 738 0060 4175 746F 		.string	"Automatic pin%d old%d new%d\r\n"
 738      6D61 7469 
 738      6320 7069 
 738      6E25 6420 
 738      6F6C 6425 
 739               		.text
 740               	.global	_ZN6Rolade13NewRegulStateE16RegulatingStatus
 742               	_ZN6Rolade13NewRegulStateE16RegulatingStatus:
 743               	.LFB19:
 744               	.LM69:
 745               	/* prologue: frame size=0 */
 746 03ec FF92      		push r15
 747 03ee 0F93      		push r16
 748 03f0 1F93      		push r17
 749 03f2 CF93      		push r28
 750 03f4 DF93      		push r29
 751               	/* prologue end (size=5) */
 752 03f6 EC01      		movw r28,r24
 753 03f8 F62E      		mov r15,r22
 754               	.LBB14:
 755               	.LM70:
 756 03fa 8B85      		ldd r24,Y+11
 757 03fc 9927      		clr r25
 758 03fe 062F      		mov r16,r22
 759 0400 1127      		clr r17
 760 0402 8017      		cp r24,r16
 761 0404 9107      		cpc r25,r17
 762 0406 09F4      		brne .+2
 763 0408 43C0      		rjmp .L38
 764               	.LM71:
 765 040a 0130      		cpi r16,1
 766 040c 1105      		cpc r17,__zero_reg__
 767 040e 59F0      		breq .L42
 768 0410 0230      		cpi r16,2
 769 0412 1105      		cpc r17,__zero_reg__
 770 0414 24F4      		brge .L44
 771 0416 0115      		cp r16,__zero_reg__
 772 0418 1105      		cpc r17,__zero_reg__
 773 041a 49F0      		breq .L43
 774 041c 0BC0      		rjmp .L40
 775               	.L44:
 776 041e 0230      		cpi r16,2
 777 0420 1105      		cpc r17,__zero_reg__
 778 0422 29F0      		breq .L43
 779 0424 07C0      		rjmp .L40
 780               	.L42:
 781               	.LM72:
 782 0426 CE01      		movw r24,r28
 783 0428 0E94 0000 		call _ZN6Rolade4DownEv
 784               	.LM73:
 785 042c 03C0      		rjmp .L40
 786               	.L43:
 787               	.LM74:
 788 042e CE01      		movw r24,r28
 789 0430 0E94 0000 		call _ZN6Rolade2UpEv
 790               	.L40:
 791               	.LM75:
 792 0434 8091 0000 		lds r24,time
 793 0438 9927      		clr r25
 794 043a 9F93      		push r25
 795 043c 8F93      		push r24
 796 043e 8091 0000 		lds r24,time+1
 797 0442 9927      		clr r25
 798 0444 9F93      		push r25
 799 0446 8F93      		push r24
 800 0448 8091 0000 		lds r24,time+2
 801 044c 9927      		clr r25
 802 044e 9F93      		push r25
 803 0450 8F93      		push r24
 804 0452 80E0      		ldi r24,lo8(.LC0)
 805 0454 90E0      		ldi r25,hi8(.LC0)
 806 0456 9F93      		push r25
 807 0458 8F93      		push r24
 808 045a 0E94 0000 		call printf
 809               	.LM76:
 810 045e 1F93      		push r17
 811 0460 0F93      		push r16
 812 0462 8B85      		ldd r24,Y+11
 813 0464 9927      		clr r25
 814 0466 9F93      		push r25
 815 0468 8F93      		push r24
 816 046a 8881      		ld r24,Y
 817 046c 9927      		clr r25
 818 046e 9F93      		push r25
 819 0470 8F93      		push r24
 820 0472 80E0      		ldi r24,lo8(.LC5)
 821 0474 90E0      		ldi r25,hi8(.LC5)
 822 0476 9F93      		push r25
 823 0478 8F93      		push r24
 824 047a 0E94 0000 		call printf
 825               	.LM77:
 826 047e FB86      		std Y+11,r15
 827               	.LBE14:
 828 0480 8DB7      		in r24,__SP_L__
 829 0482 9EB7      		in r25,__SP_H__
 830 0484 4096      		adiw r24,16
 831 0486 0FB6      		in __tmp_reg__,__SREG__
 832 0488 F894      		cli
 833 048a 9EBF      		out __SP_H__,r25
 834 048c 0FBE      		out __SREG__,__tmp_reg__
 835 048e 8DBF      		out __SP_L__,r24
 836               	.L38:
 837               	/* epilogue: frame size=0 */
 838 0490 DF91      		pop r29
 839 0492 CF91      		pop r28
 840 0494 1F91      		pop r17
 841 0496 0F91      		pop r16
 842 0498 FF90      		pop r15
 843 049a 0895      		ret
 844               	/* epilogue end (size=6) */
 845               	/* function void Rolade::NewRegulState(RegulatingStatus) size 88 (77) */
 846               	.LFE19:
 848               	.global	_ZN6Rolade22UpdateRegulatingStatusEhh
 850               	_ZN6Rolade22UpdateRegulatingStatusEhh:
 851               	.LFB13:
 852               	.LM78:
 853               	/* prologue: frame size=0 */
 854 049c 0F93      		push r16
 855 049e 1F93      		push r17
 856 04a0 CF93      		push r28
 857 04a2 DF93      		push r29
 858               	/* prologue end (size=4) */
 859 04a4 EC01      		movw r28,r24
 860 04a6 162F      		mov r17,r22
 861 04a8 042F      		mov r16,r20
 862               	.LBB15:
 863               	.LM79:
 864 04aa 6981      		ldd r22,Y+1
 865 04ac 6623      		tst r22
 866 04ae 61F0      		breq .L46
 867               	.LM80:
 868 04b0 1123      		tst r17
 869 04b2 29F0      		breq .L47
 870 04b4 4423      		tst r20
 871 04b6 19F4      		brne .L47
 872               	.LM81:
 873 04b8 61E0      		ldi r22,lo8(1)
 874 04ba 0E94 0000 		call _ZN6Rolade13NewRegulStateE16RegulatingStatus
 875               	.L47:
 876               	.LM82:
 877 04be 1123      		tst r17
 878 04c0 31F4      		brne .L45
 879 04c2 0023      		tst r16
 880 04c4 21F0      		breq .L45
 881               	.LM83:
 882 04c6 62E0      		ldi r22,lo8(2)
 883               	.L46:
 884               	.LM84:
 885 04c8 CE01      		movw r24,r28
 886 04ca 0E94 0000 		call _ZN6Rolade13NewRegulStateE16RegulatingStatus
 887               	.L45:
 888               	.LBE15:
 889               	/* epilogue: frame size=0 */
 890 04ce DF91      		pop r29
 891 04d0 CF91      		pop r28
 892 04d2 1F91      		pop r17
 893 04d4 0F91      		pop r16
 894 04d6 0895      		ret
 895               	/* epilogue end (size=5) */
 896               	/* function void Rolade::UpdateRegulatingStatus(uint8_t, uint8_t) size 30 (21) */
 897               	.LFE13:
 899               		.data
 900               	.LC6:
 901 007e 4175 746F 		.string	"Autom mode change old%d new%d\r\n"
 901      6D20 6D6F 
 901      6465 2063 
 901      6861 6E67 
 901      6520 6F6C 
 902               		.text
 903               	.global	_ZN6Rolade12SetAutomatikEh
 905               	_ZN6Rolade12SetAutomatikEh:
 906               	.LFB14:
 907               	.LM85:
 908               	/* prologue: frame size=0 */
 909 04d8 FF92      		push r15
 910 04da 0F93      		push r16
 911 04dc 1F93      		push r17
 912 04de CF93      		push r28
 913 04e0 DF93      		push r29
 914               	/* prologue end (size=5) */
 915 04e2 EC01      		movw r28,r24
 916 04e4 F62E      		mov r15,r22
 917               	.LBB16:
 918               	.LM86:
 919 04e6 062F      		mov r16,r22
 920 04e8 1127      		clr r17
 921 04ea 8981      		ldd r24,Y+1
 922 04ec 9927      		clr r25
 923 04ee 0817      		cp r16,r24
 924 04f0 1907      		cpc r17,r25
 925 04f2 51F1      		breq .L50
 926               	.LM87:
 927 04f4 8091 0000 		lds r24,time
 928 04f8 9927      		clr r25
 929 04fa 9F93      		push r25
 930 04fc 8F93      		push r24
 931 04fe 8091 0000 		lds r24,time+1
 932 0502 9927      		clr r25
 933 0504 9F93      		push r25
 934 0506 8F93      		push r24
 935 0508 8091 0000 		lds r24,time+2
 936 050c 9927      		clr r25
 937 050e 9F93      		push r25
 938 0510 8F93      		push r24
 939 0512 80E0      		ldi r24,lo8(.LC0)
 940 0514 90E0      		ldi r25,hi8(.LC0)
 941 0516 9F93      		push r25
 942 0518 8F93      		push r24
 943 051a 0E94 0000 		call printf
 944               	.LM88:
 945 051e 1F93      		push r17
 946 0520 0F93      		push r16
 947 0522 8981      		ldd r24,Y+1
 948 0524 9927      		clr r25
 949 0526 9F93      		push r25
 950 0528 8F93      		push r24
 951 052a 80E0      		ldi r24,lo8(.LC6)
 952 052c 90E0      		ldi r25,hi8(.LC6)
 953 052e 9F93      		push r25
 954 0530 8F93      		push r24
 955 0532 0E94 0000 		call printf
 956               	.LM89:
 957 0536 F982      		std Y+1,r15
 958 0538 8DB7      		in r24,__SP_L__
 959 053a 9EB7      		in r25,__SP_H__
 960 053c 0E96      		adiw r24,14
 961 053e 0FB6      		in __tmp_reg__,__SREG__
 962 0540 F894      		cli
 963 0542 9EBF      		out __SP_H__,r25
 964 0544 0FBE      		out __SREG__,__tmp_reg__
 965 0546 8DBF      		out __SP_L__,r24
 966               	.L50:
 967               	.LBE16:
 968               	/* epilogue: frame size=0 */
 969 0548 DF91      		pop r29
 970 054a CF91      		pop r28
 971 054c 1F91      		pop r17
 972 054e 0F91      		pop r16
 973 0550 FF90      		pop r15
 974 0552 0895      		ret
 975               	/* epilogue end (size=6) */
 976               	/* function void Rolade::SetAutomatik(uint8_t) size 62 (51) */
 977               	.LFE14:
 979               	.global	_ZN6Rolade20IsTimeAutomaticStartEv
 981               	_ZN6Rolade20IsTimeAutomaticStartEv:
 982               	.LFB15:
 983               	.LM90:
 984               	/* prologue: frame size=0 */
 985               	/* prologue end (size=0) */
 986               	.LBB17:
 987               	.LM91:
 988 0554 0296      		adiw r24,2
 989 0556 0E94 0000 		call _Z11IsTimeEventP11time_format
 990               	.LBE17:
 991               	.LM92:
 992 055a 9927      		clr r25
 993               	/* epilogue: frame size=0 */
 994 055c 0895      		ret
 995               	/* epilogue end (size=1) */
 996               	/* function uint8_t Rolade::IsTimeAutomaticStart() size 5 (4) */
 997               	.LFE15:
 999               	.global	_ZN6Rolade18IsTimeAutomaticEndEv
 1001               	_ZN6Rolade18IsTimeAutomaticEndEv:
 1002               	.LFB16:
 1003               	.LM93:
 1004               	/* prologue: frame size=0 */
 1005               	/* prologue end (size=0) */
 1006               	.LBB18:
 1007               	.LM94:
 1008 055e 0696      		adiw r24,6
 1009 0560 0E94 0000 		call _Z11IsTimeEventP11time_format
 1010               	.LBE18:
 1011               	.LM95:
 1012 0564 9927      		clr r25
 1013               	/* epilogue: frame size=0 */
 1014 0566 0895      		ret
 1015               	/* epilogue end (size=1) */
 1016               	/* function uint8_t Rolade::IsTimeAutomaticEnd() size 5 (4) */
 1017               	.LFE16:
 1019               	.global	_ZN6Rolade16IsTimeForMorningEv
 1021               	_ZN6Rolade16IsTimeForMorningEv:
 1022               	.LFB17:
 1023               	.LM96:
 1024               	/* prologue: frame size=4 */
 1025 0568 CF93      		push r28
 1026 056a DF93      		push r29
 1027 056c CDB7      		in r28,__SP_L__
 1028 056e DEB7      		in r29,__SP_H__
 1029 0570 2497      		sbiw r28,4
 1030 0572 0FB6      		in __tmp_reg__,__SREG__
 1031 0574 F894      		cli
 1032 0576 DEBF      		out __SP_H__,r29
 1033 0578 0FBE      		out __SREG__,__tmp_reg__
 1034 057a CDBF      		out __SP_L__,r28
 1035               	/* prologue end (size=10) */
 1036               	.LBB19:
 1037               	.LBB20:
 1038               	.LM97:
 1039 057c CE01      		movw r24,r28
 1040 057e 0196      		adiw r24,1
 1041 0580 0E94 0000 		call _Z28GetWindwoUpTimeFromWeekOfDayP11time_format
 1042               	.LM98:
 1043 0584 CE01      		movw r24,r28
 1044 0586 0196      		adiw r24,1
 1045 0588 0E94 0000 		call _Z11IsTimeEventP11time_format
 1046               	.LBE20:
 1047               	.LBE19:
 1048               	.LM99:
 1049 058c 9927      		clr r25
 1050               	/* epilogue: frame size=4 */
 1051 058e 2496      		adiw r28,4
 1052 0590 0FB6      		in __tmp_reg__,__SREG__
 1053 0592 F894      		cli
 1054 0594 DEBF      		out __SP_H__,r29
 1055 0596 0FBE      		out __SREG__,__tmp_reg__
 1056 0598 CDBF      		out __SP_L__,r28
 1057 059a DF91      		pop r29
 1058 059c CF91      		pop r28
 1059 059e 0895      		ret
 1060               	/* epilogue end (size=9) */
 1061               	/* function uint8_t Rolade::IsTimeForMorning() size 28 (9) */
 1062               	.LFE17:
 1064               	.global	_ZN6Rolade12UpdateStatusEhhh
 1066               	_ZN6Rolade12UpdateStatusEhhh:
 1067               	.LFB20:
 1068               	.LM100:
 1069               	/* prologue: frame size=0 */
 1070 05a0 0F93      		push r16
 1071 05a2 1F93      		push r17
 1072 05a4 CF93      		push r28
 1073 05a6 DF93      		push r29
 1074               	/* prologue end (size=4) */
 1075 05a8 EC01      		movw r28,r24
 1076 05aa 062F      		mov r16,r22
 1077 05ac 142F      		mov r17,r20
 1078               	.LBB21:
 1079               	.LM101:
 1080 05ae 8A85      		ldd r24,Y+10
 1081 05b0 9927      		clr r25
 1082 05b2 8130      		cpi r24,1
 1083 05b4 9105      		cpc r25,__zero_reg__
 1084 05b6 B1F0      		breq .L59
 1085               	.LM102:
 1086 05b8 8230      		cpi r24,2
 1087 05ba 9105      		cpc r25,__zero_reg__
 1088 05bc 1CF4      		brge .L66
 1089 05be 892B      		or r24,r25
 1090 05c0 39F0      		breq .L57
 1091 05c2 2AC0      		rjmp .L55
 1092               	.L66:
 1093 05c4 8230      		cpi r24,2
 1094 05c6 9105      		cpc r25,__zero_reg__
 1095 05c8 D1F0      		breq .L62
 1096 05ca 0397      		sbiw r24,3
 1097 05cc E1F0      		breq .L64
 1098 05ce 24C0      		rjmp .L55
 1099               	.L57:
 1100               	.LM103:
 1101 05d0 CE01      		movw r24,r28
 1102 05d2 0E94 0000 		call _ZN6Rolade20IsTimeAutomaticStartEv
 1103 05d6 8823      		tst r24
 1104 05d8 F9F0      		breq .L55
 1105               	.LM104:
 1106 05da 61E0      		ldi r22,lo8(1)
 1107 05dc CE01      		movw r24,r28
 1108 05de 0E94 0000 		call _ZN6Rolade8NewStateE12RollerStatus
 1109 05e2 07C0      		rjmp .L60
 1110               	.L59:
 1111               	.LM105:
 1112 05e4 CE01      		movw r24,r28
 1113 05e6 0E94 0000 		call _ZN6Rolade18IsTimeAutomaticEndEv
 1114 05ea 8823      		tst r24
 1115 05ec 11F0      		breq .L60
 1116               	.LM106:
 1117 05ee 62E0      		ldi r22,lo8(2)
 1118 05f0 10C0      		rjmp .L67
 1119               	.L60:
 1120               	.LM107:
 1121 05f2 412F      		mov r20,r17
 1122 05f4 602F      		mov r22,r16
 1123 05f6 CE01      		movw r24,r28
 1124 05f8 0E94 0000 		call _ZN6Rolade22UpdateRegulatingStatusEhh
 1125               	.LM108:
 1126 05fc 0DC0      		rjmp .L55
 1127               	.L62:
 1128               	.LM109:
 1129 05fe 2223      		tst r18
 1130 0600 59F0      		breq .L55
 1131               	.LM110:
 1132 0602 63E0      		ldi r22,lo8(3)
 1133 0604 06C0      		rjmp .L67
 1134               	.L64:
 1135               	.LM111:
 1136 0606 CE01      		movw r24,r28
 1137 0608 0E94 0000 		call _ZN6Rolade16IsTimeForMorningEv
 1138 060c 8823      		tst r24
 1139 060e 21F0      		breq .L55
 1140               	.LM112:
 1141 0610 60E0      		ldi r22,lo8(0)
 1142               	.L67:
 1143 0612 CE01      		movw r24,r28
 1144 0614 0E94 0000 		call _ZN6Rolade8NewStateE12RollerStatus
 1145               	.L55:
 1146               	.LBE21:
 1147               	/* epilogue: frame size=0 */
 1148 0618 DF91      		pop r29
 1149 061a CF91      		pop r28
 1150 061c 1F91      		pop r17
 1151 061e 0F91      		pop r16
 1152 0620 0895      		ret
 1153               	/* epilogue end (size=5) */
 1154               	/* function void Rolade::UpdateStatus(uint8_t, uint8_t, uint8_t) size 66 (57) */
 1155               	.LFE20:
 1157               	.Letext0:
DEFINED SYMBOLS
                            *ABS*:00000000 rolade.cpp
C:\DOKUME~1\peter\LOKALE~1\Temp/ccmAaaaa.s:3      *ABS*:0000003f __SREG__
C:\DOKUME~1\peter\LOKALE~1\Temp/ccmAaaaa.s:4      *ABS*:0000003e __SP_H__
C:\DOKUME~1\peter\LOKALE~1\Temp/ccmAaaaa.s:5      *ABS*:0000003d __SP_L__
C:\DOKUME~1\peter\LOKALE~1\Temp/ccmAaaaa.s:6      *ABS*:00000000 __tmp_reg__
C:\DOKUME~1\peter\LOKALE~1\Temp/ccmAaaaa.s:7      *ABS*:00000001 __zero_reg__
C:\DOKUME~1\peter\LOKALE~1\Temp/ccmAaaaa.s:26     .text:00000000 _ZN6Rolade2UpEv
C:\DOKUME~1\peter\LOKALE~1\Temp/ccmAaaaa.s:102    .text:00000078 _ZN6Rolade4DownEv
C:\DOKUME~1\peter\LOKALE~1\Temp/ccmAaaaa.s:172    .text:000000ec _ZN6Rolade6SetPinEh
C:\DOKUME~1\peter\LOKALE~1\Temp/ccmAaaaa.s:193    .text:000000f8 _Z11IsTimeEventP11time_format
C:\DOKUME~1\peter\LOKALE~1\Temp/ccmAaaaa.s:250    .text:00000140 _Z10IsTimeLessP11time_format
C:\DOKUME~1\peter\LOKALE~1\Temp/ccmAaaaa.s:307    .text:00000188 _Z13IsTimeGreaterhP11time_format
C:\DOKUME~1\peter\LOKALE~1\Temp/ccmAaaaa.s:364    .text:000001d0 _Z12IsInIntervalP11time_formatS0_
C:\DOKUME~1\peter\LOKALE~1\Temp/ccmAaaaa.s:426    .text:00000230 _ZN6Rolade20SetAutomaticIntervalEhhhh
C:\DOKUME~1\peter\LOKALE~1\Temp/ccmAaaaa.s:452    .text:00000240 _Z28GetWindwoUpTimeFromWeekOfDayP11time_format
C:\DOKUME~1\peter\LOKALE~1\Temp/ccmAaaaa.s:502    .text:0000026a _ZN6Rolade8NewStateE12RollerStatus
C:\DOKUME~1\peter\LOKALE~1\Temp/ccmAaaaa.s:607    .text:0000030e _ZN6Rolade4InitEv
C:\DOKUME~1\peter\LOKALE~1\Temp/ccmAaaaa.s:742    .text:000003ec _ZN6Rolade13NewRegulStateE16RegulatingStatus
C:\DOKUME~1\peter\LOKALE~1\Temp/ccmAaaaa.s:850    .text:0000049c _ZN6Rolade22UpdateRegulatingStatusEhh
C:\DOKUME~1\peter\LOKALE~1\Temp/ccmAaaaa.s:905    .text:000004d8 _ZN6Rolade12SetAutomatikEh
C:\DOKUME~1\peter\LOKALE~1\Temp/ccmAaaaa.s:981    .text:00000554 _ZN6Rolade20IsTimeAutomaticStartEv
C:\DOKUME~1\peter\LOKALE~1\Temp/ccmAaaaa.s:1001   .text:0000055e _ZN6Rolade18IsTimeAutomaticEndEv
C:\DOKUME~1\peter\LOKALE~1\Temp/ccmAaaaa.s:1021   .text:00000568 _ZN6Rolade16IsTimeForMorningEv
C:\DOKUME~1\peter\LOKALE~1\Temp/ccmAaaaa.s:1066   .text:000005a0 _ZN6Rolade12UpdateStatusEhhh

UNDEFINED SYMBOLS
__do_copy_data
__do_clear_bss
time
printf
dcf
